ARM GAS  /tmp/ccObKSes.s 			page 1


   1              		.syntax unified
   2              		.cpu cortex-m3
   3              		.fpu softvfp
   4              		.eabi_attribute 20, 1
   5              		.eabi_attribute 21, 1
   6              		.eabi_attribute 23, 3
   7              		.eabi_attribute 24, 1
   8              		.eabi_attribute 25, 1
   9              		.eabi_attribute 26, 1
  10              		.eabi_attribute 30, 1
  11              		.eabi_attribute 34, 1
  12              		.eabi_attribute 18, 4
  13              		.thumb
  14              		.syntax unified
  15              		.file	"ipc.c"
  16              		.text
  17              	.Ltext0:
  18              		.cfi_sections	.debug_frame
  19              		.section	.text.rt_sem_init,"ax",%progbits
  20              		.align	2
  21              		.global	rt_sem_init
  22              		.thumb
  23              		.thumb_func
  25              	rt_sem_init:
  26              	.LFB19:
  27              		.file 1 "rt_thread/src/ipc.c"
   1:rt_thread/src/ipc.c **** /*
   2:rt_thread/src/ipc.c ****  * Copyright (c) 2006-2018, RT-Thread Development Team
   3:rt_thread/src/ipc.c ****  *
   4:rt_thread/src/ipc.c ****  * SPDX-License-Identifier: Apache-2.0
   5:rt_thread/src/ipc.c ****  *
   6:rt_thread/src/ipc.c ****  * Change Logs:
   7:rt_thread/src/ipc.c ****  * Date           Author       Notes
   8:rt_thread/src/ipc.c ****  * 2006-03-14     Bernard      the first version
   9:rt_thread/src/ipc.c ****  * 2006-04-25     Bernard      implement semaphore
  10:rt_thread/src/ipc.c ****  * 2006-05-03     Bernard      add RT_IPC_DEBUG
  11:rt_thread/src/ipc.c ****  *                             modify the type of IPC waiting time to rt_int32_t
  12:rt_thread/src/ipc.c ****  * 2006-05-10     Bernard      fix the semaphore take bug and add IPC object
  13:rt_thread/src/ipc.c ****  * 2006-05-12     Bernard      implement mailbox and message queue
  14:rt_thread/src/ipc.c ****  * 2006-05-20     Bernard      implement mutex
  15:rt_thread/src/ipc.c ****  * 2006-05-23     Bernard      implement fast event
  16:rt_thread/src/ipc.c ****  * 2006-05-24     Bernard      implement event
  17:rt_thread/src/ipc.c ****  * 2006-06-03     Bernard      fix the thread timer init bug
  18:rt_thread/src/ipc.c ****  * 2006-06-05     Bernard      fix the mutex release bug
  19:rt_thread/src/ipc.c ****  * 2006-06-07     Bernard      fix the message queue send bug
  20:rt_thread/src/ipc.c ****  * 2006-08-04     Bernard      add hook support
  21:rt_thread/src/ipc.c ****  * 2009-05-21     Yi.qiu       fix the sem release bug
  22:rt_thread/src/ipc.c ****  * 2009-07-18     Bernard      fix the event clear bug
  23:rt_thread/src/ipc.c ****  * 2009-09-09     Bernard      remove fast event and fix ipc release bug
  24:rt_thread/src/ipc.c ****  * 2009-10-10     Bernard      change semaphore and mutex value to unsigned value
  25:rt_thread/src/ipc.c ****  * 2009-10-25     Bernard      change the mb/mq receive timeout to 0 if the
  26:rt_thread/src/ipc.c ****  *                             re-calculated delta tick is a negative number.
  27:rt_thread/src/ipc.c ****  * 2009-12-16     Bernard      fix the rt_ipc_object_suspend issue when IPC flag
  28:rt_thread/src/ipc.c ****  *                             is RT_IPC_FLAG_PRIO
  29:rt_thread/src/ipc.c ****  * 2010-01-20     mbbill       remove rt_ipc_object_decrease function.
  30:rt_thread/src/ipc.c ****  * 2010-04-20     Bernard      move memcpy outside interrupt disable in mq
  31:rt_thread/src/ipc.c ****  * 2010-10-26     yi.qiu       add module support in rt_mp_delete and rt_mq_delete
ARM GAS  /tmp/ccObKSes.s 			page 2


  32:rt_thread/src/ipc.c ****  * 2010-11-10     Bernard      add IPC reset command implementation.
  33:rt_thread/src/ipc.c ****  * 2011-12-18     Bernard      add more parameter checking in message queue
  34:rt_thread/src/ipc.c ****  * 2013-09-14     Grissiom     add an option check in rt_event_recv
  35:rt_thread/src/ipc.c ****  * 2018-10-02     Bernard      add 64bit support for mailbox
  36:rt_thread/src/ipc.c ****  * 2019-09-16     tyx          add send wait support for message queue
  37:rt_thread/src/ipc.c ****  */
  38:rt_thread/src/ipc.c **** 
  39:rt_thread/src/ipc.c **** #include <rtthread.h>
  40:rt_thread/src/ipc.c **** #include <rthw.h>
  41:rt_thread/src/ipc.c **** 
  42:rt_thread/src/ipc.c **** #ifdef RT_USING_HOOK
  43:rt_thread/src/ipc.c **** extern void (*rt_object_trytake_hook)(struct rt_object *object);
  44:rt_thread/src/ipc.c **** extern void (*rt_object_take_hook)(struct rt_object *object);
  45:rt_thread/src/ipc.c **** extern void (*rt_object_put_hook)(struct rt_object *object);
  46:rt_thread/src/ipc.c **** #endif
  47:rt_thread/src/ipc.c **** 
  48:rt_thread/src/ipc.c **** /**
  49:rt_thread/src/ipc.c ****  * @addtogroup IPC
  50:rt_thread/src/ipc.c ****  */
  51:rt_thread/src/ipc.c **** 
  52:rt_thread/src/ipc.c **** /**@{*/
  53:rt_thread/src/ipc.c **** 
  54:rt_thread/src/ipc.c **** /**
  55:rt_thread/src/ipc.c ****  * This function will initialize an IPC object
  56:rt_thread/src/ipc.c ****  *
  57:rt_thread/src/ipc.c ****  * @param ipc the IPC object
  58:rt_thread/src/ipc.c ****  *
  59:rt_thread/src/ipc.c ****  * @return the operation status, RT_EOK on successful
  60:rt_thread/src/ipc.c ****  */
  61:rt_thread/src/ipc.c **** rt_inline rt_err_t rt_ipc_object_init(struct rt_ipc_object *ipc)
  62:rt_thread/src/ipc.c **** {
  63:rt_thread/src/ipc.c ****     /* initialize ipc object */
  64:rt_thread/src/ipc.c ****     rt_list_init(&(ipc->suspend_thread));
  65:rt_thread/src/ipc.c **** 
  66:rt_thread/src/ipc.c ****     return RT_EOK;
  67:rt_thread/src/ipc.c **** }
  68:rt_thread/src/ipc.c **** 
  69:rt_thread/src/ipc.c **** /**
  70:rt_thread/src/ipc.c ****  * This function will suspend a thread to a specified list. IPC object or some
  71:rt_thread/src/ipc.c ****  * double-queue object (mailbox etc.) contains this kind of list.
  72:rt_thread/src/ipc.c ****  *
  73:rt_thread/src/ipc.c ****  * @param list the IPC suspended thread list
  74:rt_thread/src/ipc.c ****  * @param thread the thread object to be suspended
  75:rt_thread/src/ipc.c ****  * @param flag the IPC object flag,
  76:rt_thread/src/ipc.c ****  *        which shall be RT_IPC_FLAG_FIFO/RT_IPC_FLAG_PRIO.
  77:rt_thread/src/ipc.c ****  *
  78:rt_thread/src/ipc.c ****  * @return the operation status, RT_EOK on successful
  79:rt_thread/src/ipc.c ****  */
  80:rt_thread/src/ipc.c **** rt_inline rt_err_t rt_ipc_list_suspend(rt_list_t        *list,
  81:rt_thread/src/ipc.c ****                                        struct rt_thread *thread,
  82:rt_thread/src/ipc.c ****                                        rt_uint8_t        flag)
  83:rt_thread/src/ipc.c **** {
  84:rt_thread/src/ipc.c ****     /* suspend thread */
  85:rt_thread/src/ipc.c ****     rt_thread_suspend(thread);
  86:rt_thread/src/ipc.c **** 
  87:rt_thread/src/ipc.c ****     switch (flag)
  88:rt_thread/src/ipc.c ****     {
ARM GAS  /tmp/ccObKSes.s 			page 3


  89:rt_thread/src/ipc.c ****     case RT_IPC_FLAG_FIFO:
  90:rt_thread/src/ipc.c ****         rt_list_insert_before(list, &(thread->tlist));
  91:rt_thread/src/ipc.c ****         break;
  92:rt_thread/src/ipc.c **** 
  93:rt_thread/src/ipc.c ****     case RT_IPC_FLAG_PRIO:
  94:rt_thread/src/ipc.c ****         {
  95:rt_thread/src/ipc.c ****             struct rt_list_node *n;
  96:rt_thread/src/ipc.c ****             struct rt_thread *sthread;
  97:rt_thread/src/ipc.c **** 
  98:rt_thread/src/ipc.c ****             /* find a suitable position */
  99:rt_thread/src/ipc.c ****             for (n = list->next; n != list; n = n->next)
 100:rt_thread/src/ipc.c ****             {
 101:rt_thread/src/ipc.c ****                 sthread = rt_list_entry(n, struct rt_thread, tlist);
 102:rt_thread/src/ipc.c **** 
 103:rt_thread/src/ipc.c ****                 /* find out */
 104:rt_thread/src/ipc.c ****                 if (thread->current_priority < sthread->current_priority)
 105:rt_thread/src/ipc.c ****                 {
 106:rt_thread/src/ipc.c ****                     /* insert this thread before the sthread */
 107:rt_thread/src/ipc.c ****                     rt_list_insert_before(&(sthread->tlist), &(thread->tlist));
 108:rt_thread/src/ipc.c ****                     break;
 109:rt_thread/src/ipc.c ****                 }
 110:rt_thread/src/ipc.c ****             }
 111:rt_thread/src/ipc.c **** 
 112:rt_thread/src/ipc.c ****             /*
 113:rt_thread/src/ipc.c ****              * not found a suitable position,
 114:rt_thread/src/ipc.c ****              * append to the end of suspend_thread list
 115:rt_thread/src/ipc.c ****              */
 116:rt_thread/src/ipc.c ****             if (n == list)
 117:rt_thread/src/ipc.c ****                 rt_list_insert_before(list, &(thread->tlist));
 118:rt_thread/src/ipc.c ****         }
 119:rt_thread/src/ipc.c ****         break;
 120:rt_thread/src/ipc.c ****     }
 121:rt_thread/src/ipc.c **** 
 122:rt_thread/src/ipc.c ****     return RT_EOK;
 123:rt_thread/src/ipc.c **** }
 124:rt_thread/src/ipc.c **** 
 125:rt_thread/src/ipc.c **** /**
 126:rt_thread/src/ipc.c ****  * This function will resume the first thread in the list of a IPC object:
 127:rt_thread/src/ipc.c ****  * - remove the thread from suspend queue of IPC object
 128:rt_thread/src/ipc.c ****  * - put the thread into system ready queue
 129:rt_thread/src/ipc.c ****  *
 130:rt_thread/src/ipc.c ****  * @param list the thread list
 131:rt_thread/src/ipc.c ****  *
 132:rt_thread/src/ipc.c ****  * @return the operation status, RT_EOK on successful
 133:rt_thread/src/ipc.c ****  */
 134:rt_thread/src/ipc.c **** rt_inline rt_err_t rt_ipc_list_resume(rt_list_t *list)
 135:rt_thread/src/ipc.c **** {
 136:rt_thread/src/ipc.c ****     struct rt_thread *thread;
 137:rt_thread/src/ipc.c **** 
 138:rt_thread/src/ipc.c ****     /* get thread entry */
 139:rt_thread/src/ipc.c ****     thread = rt_list_entry(list->next, struct rt_thread, tlist);
 140:rt_thread/src/ipc.c **** 
 141:rt_thread/src/ipc.c ****     RT_DEBUG_LOG(RT_DEBUG_IPC, ("resume thread:%s\n", thread->name));
 142:rt_thread/src/ipc.c **** 
 143:rt_thread/src/ipc.c ****     /* resume it */
 144:rt_thread/src/ipc.c ****     rt_thread_resume(thread);
 145:rt_thread/src/ipc.c **** 
ARM GAS  /tmp/ccObKSes.s 			page 4


 146:rt_thread/src/ipc.c ****     return RT_EOK;
 147:rt_thread/src/ipc.c **** }
 148:rt_thread/src/ipc.c **** 
 149:rt_thread/src/ipc.c **** /**
 150:rt_thread/src/ipc.c ****  * This function will resume all suspended threads in a list, including
 151:rt_thread/src/ipc.c ****  * suspend list of IPC object and private list of mailbox etc.
 152:rt_thread/src/ipc.c ****  *
 153:rt_thread/src/ipc.c ****  * @param list of the threads to resume
 154:rt_thread/src/ipc.c ****  *
 155:rt_thread/src/ipc.c ****  * @return the operation status, RT_EOK on successful
 156:rt_thread/src/ipc.c ****  */
 157:rt_thread/src/ipc.c **** rt_inline rt_err_t rt_ipc_list_resume_all(rt_list_t *list)
 158:rt_thread/src/ipc.c **** {
 159:rt_thread/src/ipc.c ****     struct rt_thread *thread;
 160:rt_thread/src/ipc.c ****     register rt_ubase_t temp;
 161:rt_thread/src/ipc.c **** 
 162:rt_thread/src/ipc.c ****     /* wakeup all suspended threads */
 163:rt_thread/src/ipc.c ****     while (!rt_list_isempty(list))
 164:rt_thread/src/ipc.c ****     {
 165:rt_thread/src/ipc.c ****         /* disable interrupt */
 166:rt_thread/src/ipc.c ****         temp = rt_hw_interrupt_disable();
 167:rt_thread/src/ipc.c **** 
 168:rt_thread/src/ipc.c ****         /* get next suspended thread */
 169:rt_thread/src/ipc.c ****         thread = rt_list_entry(list->next, struct rt_thread, tlist);
 170:rt_thread/src/ipc.c ****         /* set error code to RT_ERROR */
 171:rt_thread/src/ipc.c ****         thread->error = -RT_ERROR;
 172:rt_thread/src/ipc.c **** 
 173:rt_thread/src/ipc.c ****         /*
 174:rt_thread/src/ipc.c ****          * resume thread
 175:rt_thread/src/ipc.c ****          * In rt_thread_resume function, it will remove current thread from
 176:rt_thread/src/ipc.c ****          * suspended list
 177:rt_thread/src/ipc.c ****          */
 178:rt_thread/src/ipc.c ****         rt_thread_resume(thread);
 179:rt_thread/src/ipc.c **** 
 180:rt_thread/src/ipc.c ****         /* enable interrupt */
 181:rt_thread/src/ipc.c ****         rt_hw_interrupt_enable(temp);
 182:rt_thread/src/ipc.c ****     }
 183:rt_thread/src/ipc.c **** 
 184:rt_thread/src/ipc.c ****     return RT_EOK;
 185:rt_thread/src/ipc.c **** }
 186:rt_thread/src/ipc.c **** 
 187:rt_thread/src/ipc.c **** #ifdef RT_USING_SEMAPHORE
 188:rt_thread/src/ipc.c **** /**
 189:rt_thread/src/ipc.c ****  * This function will initialize a semaphore and put it under control of
 190:rt_thread/src/ipc.c ****  * resource management.
 191:rt_thread/src/ipc.c ****  *
 192:rt_thread/src/ipc.c ****  * @param sem the semaphore object
 193:rt_thread/src/ipc.c ****  * @param name the name of semaphore
 194:rt_thread/src/ipc.c ****  * @param value the initial value of semaphore
 195:rt_thread/src/ipc.c ****  * @param flag the flag of semaphore
 196:rt_thread/src/ipc.c ****  *
 197:rt_thread/src/ipc.c ****  * @return the operation status, RT_EOK on successful
 198:rt_thread/src/ipc.c ****  */
 199:rt_thread/src/ipc.c **** rt_err_t rt_sem_init(rt_sem_t    sem,
 200:rt_thread/src/ipc.c ****                      const char *name,
 201:rt_thread/src/ipc.c ****                      rt_uint32_t value,
 202:rt_thread/src/ipc.c ****                      rt_uint8_t  flag)
ARM GAS  /tmp/ccObKSes.s 			page 5


 203:rt_thread/src/ipc.c **** {
  28              		.loc 1 203 0
  29              		.cfi_startproc
  30              		@ args = 0, pretend = 0, frame = 0
  31              		@ frame_needed = 0, uses_anonymous_args = 0
  32              	.LVL0:
  33 0000 F8B5     		push	{r3, r4, r5, r6, r7, lr}
  34              	.LCFI0:
  35              		.cfi_def_cfa_offset 24
  36              		.cfi_offset 3, -24
  37              		.cfi_offset 4, -20
  38              		.cfi_offset 5, -16
  39              		.cfi_offset 6, -12
  40              		.cfi_offset 7, -8
  41              		.cfi_offset 14, -4
  42 0002 0F46     		mov	r7, r1
  43 0004 1546     		mov	r5, r2
  44 0006 1E46     		mov	r6, r3
 204:rt_thread/src/ipc.c ****     RT_ASSERT(sem != RT_NULL);
  45              		.loc 1 204 0
  46 0008 0446     		mov	r4, r0
  47 000a 20B9     		cbnz	r0, .L2
  48              		.loc 1 204 0 is_stmt 0 discriminator 1
  49 000c CC22     		movs	r2, #204
  50              	.LVL1:
  51 000e 0C49     		ldr	r1, .L5
  52              	.LVL2:
  53 0010 0C48     		ldr	r0, .L5+4
  54              	.LVL3:
  55 0012 FFF7FEFF 		bl	rt_assert_handler
  56              	.LVL4:
  57              	.L2:
 205:rt_thread/src/ipc.c ****     RT_ASSERT(value < 0x10000U);
  58              		.loc 1 205 0 is_stmt 1
  59 0016 B5F5803F 		cmp	r5, #65536
  60 001a 04D3     		bcc	.L3
  61              		.loc 1 205 0 is_stmt 0 discriminator 1
  62 001c CD22     		movs	r2, #205
  63 001e 0849     		ldr	r1, .L5
  64 0020 0948     		ldr	r0, .L5+8
  65 0022 FFF7FEFF 		bl	rt_assert_handler
  66              	.LVL5:
  67              	.L3:
 206:rt_thread/src/ipc.c **** 
 207:rt_thread/src/ipc.c ****     /* initialize object */
 208:rt_thread/src/ipc.c ****     rt_object_init(&(sem->parent.parent), RT_Object_Class_Semaphore, name);
  68              		.loc 1 208 0 is_stmt 1
  69 0026 3A46     		mov	r2, r7
  70 0028 0221     		movs	r1, #2
  71 002a 2046     		mov	r0, r4
  72 002c FFF7FEFF 		bl	rt_object_init
  73              	.LVL6:
  74              	.LBB106:
  75              	.LBB107:
  64:rt_thread/src/ipc.c **** 
  76              		.loc 1 64 0
  77 0030 04F11403 		add	r3, r4, #20
ARM GAS  /tmp/ccObKSes.s 			page 6


  78              	.LVL7:
  79              	.LBB108:
  80              	.LBB109:
  81              		.file 2 "rt_thread/include/rtservice.h"
   1:rt_thread/include/rtservice.h **** /*
   2:rt_thread/include/rtservice.h ****  * Copyright (c) 2006-2018, RT-Thread Development Team
   3:rt_thread/include/rtservice.h ****  *
   4:rt_thread/include/rtservice.h ****  * SPDX-License-Identifier: Apache-2.0
   5:rt_thread/include/rtservice.h ****  *
   6:rt_thread/include/rtservice.h ****  * Change Logs:
   7:rt_thread/include/rtservice.h ****  * Date           Author       Notes
   8:rt_thread/include/rtservice.h ****  * 2006-03-16     Bernard      the first version
   9:rt_thread/include/rtservice.h ****  * 2006-09-07     Bernard      move the kservice APIs to rtthread.h
  10:rt_thread/include/rtservice.h ****  * 2007-06-27     Bernard      fix the rt_list_remove bug
  11:rt_thread/include/rtservice.h ****  * 2012-03-22     Bernard      rename kservice.h to rtservice.h
  12:rt_thread/include/rtservice.h ****  * 2017-11-15     JasonJia     Modify rt_slist_foreach to rt_slist_for_each_entry.
  13:rt_thread/include/rtservice.h ****  *                             Make code cleanup.
  14:rt_thread/include/rtservice.h ****  */
  15:rt_thread/include/rtservice.h **** 
  16:rt_thread/include/rtservice.h **** #ifndef __RT_SERVICE_H__
  17:rt_thread/include/rtservice.h **** #define __RT_SERVICE_H__
  18:rt_thread/include/rtservice.h **** 
  19:rt_thread/include/rtservice.h **** #ifdef __cplusplus
  20:rt_thread/include/rtservice.h **** extern "C" {
  21:rt_thread/include/rtservice.h **** #endif
  22:rt_thread/include/rtservice.h **** 
  23:rt_thread/include/rtservice.h **** /**
  24:rt_thread/include/rtservice.h ****  * @addtogroup KernelService
  25:rt_thread/include/rtservice.h ****  */
  26:rt_thread/include/rtservice.h **** 
  27:rt_thread/include/rtservice.h **** /**@{*/
  28:rt_thread/include/rtservice.h **** 
  29:rt_thread/include/rtservice.h **** /**
  30:rt_thread/include/rtservice.h ****  * rt_container_of - return the member address of ptr, if the type of ptr is the
  31:rt_thread/include/rtservice.h ****  * struct type.
  32:rt_thread/include/rtservice.h ****  */
  33:rt_thread/include/rtservice.h **** #define rt_container_of(ptr, type, member) \
  34:rt_thread/include/rtservice.h ****     ((type *)((char *)(ptr) - (unsigned long)(&((type *)0)->member)))
  35:rt_thread/include/rtservice.h **** 
  36:rt_thread/include/rtservice.h **** 
  37:rt_thread/include/rtservice.h **** /**
  38:rt_thread/include/rtservice.h ****  * @brief initialize a list object
  39:rt_thread/include/rtservice.h ****  */
  40:rt_thread/include/rtservice.h **** #define RT_LIST_OBJECT_INIT(object) { &(object), &(object) }
  41:rt_thread/include/rtservice.h **** 
  42:rt_thread/include/rtservice.h **** /**
  43:rt_thread/include/rtservice.h ****  * @brief initialize a list
  44:rt_thread/include/rtservice.h ****  *
  45:rt_thread/include/rtservice.h ****  * @param l list to be initialized
  46:rt_thread/include/rtservice.h ****  */
  47:rt_thread/include/rtservice.h **** rt_inline void rt_list_init(rt_list_t *l)
  48:rt_thread/include/rtservice.h **** {
  49:rt_thread/include/rtservice.h ****     l->next = l->prev = l;
  82              		.loc 2 49 0
  83 0034 A361     		str	r3, [r4, #24]
  84 0036 6361     		str	r3, [r4, #20]
  85              	.LVL8:
ARM GAS  /tmp/ccObKSes.s 			page 7


  86              	.LBE109:
  87              	.LBE108:
  88              	.LBE107:
  89              	.LBE106:
 209:rt_thread/src/ipc.c **** 
 210:rt_thread/src/ipc.c ****     /* initialize ipc object */
 211:rt_thread/src/ipc.c ****     rt_ipc_object_init(&(sem->parent));
 212:rt_thread/src/ipc.c **** 
 213:rt_thread/src/ipc.c ****     /* set initial value */
 214:rt_thread/src/ipc.c ****     sem->value = (rt_uint16_t)value;
  90              		.loc 1 214 0
  91 0038 A583     		strh	r5, [r4, #28]	@ movhi
 215:rt_thread/src/ipc.c **** 
 216:rt_thread/src/ipc.c ****     /* set parent */
 217:rt_thread/src/ipc.c ****     sem->parent.parent.flag = flag;
  92              		.loc 1 217 0
  93 003a 6672     		strb	r6, [r4, #9]
 218:rt_thread/src/ipc.c **** 
 219:rt_thread/src/ipc.c ****     return RT_EOK;
 220:rt_thread/src/ipc.c **** }
  94              		.loc 1 220 0
  95 003c 0020     		movs	r0, #0
  96 003e F8BD     		pop	{r3, r4, r5, r6, r7, pc}
  97              	.LVL9:
  98              	.L6:
  99              		.align	2
 100              	.L5:
 101 0040 00000000 		.word	.LANCHOR0
 102 0044 00000000 		.word	.LC0
 103 0048 10000000 		.word	.LC1
 104              		.cfi_endproc
 105              	.LFE19:
 107              		.section	.text.rt_sem_detach,"ax",%progbits
 108              		.align	2
 109              		.global	rt_sem_detach
 110              		.thumb
 111              		.thumb_func
 113              	rt_sem_detach:
 114              	.LFB20:
 221:rt_thread/src/ipc.c **** RTM_EXPORT(rt_sem_init);
 222:rt_thread/src/ipc.c **** 
 223:rt_thread/src/ipc.c **** /**
 224:rt_thread/src/ipc.c ****  * This function will detach a semaphore from resource management
 225:rt_thread/src/ipc.c ****  *
 226:rt_thread/src/ipc.c ****  * @param sem the semaphore object
 227:rt_thread/src/ipc.c ****  *
 228:rt_thread/src/ipc.c ****  * @return the operation status, RT_EOK on successful
 229:rt_thread/src/ipc.c ****  *
 230:rt_thread/src/ipc.c ****  * @see rt_sem_delete
 231:rt_thread/src/ipc.c ****  */
 232:rt_thread/src/ipc.c **** rt_err_t rt_sem_detach(rt_sem_t sem)
 233:rt_thread/src/ipc.c **** {
 115              		.loc 1 233 0
 116              		.cfi_startproc
 117              		@ args = 0, pretend = 0, frame = 0
 118              		@ frame_needed = 0, uses_anonymous_args = 0
 119              	.LVL10:
ARM GAS  /tmp/ccObKSes.s 			page 8


 120 0000 70B5     		push	{r4, r5, r6, lr}
 121              	.LCFI1:
 122              		.cfi_def_cfa_offset 16
 123              		.cfi_offset 4, -16
 124              		.cfi_offset 5, -12
 125              		.cfi_offset 6, -8
 126              		.cfi_offset 14, -4
 234:rt_thread/src/ipc.c ****     /* parameter check */
 235:rt_thread/src/ipc.c ****     RT_ASSERT(sem != RT_NULL);
 127              		.loc 1 235 0
 128 0002 0646     		mov	r6, r0
 129 0004 20B9     		cbnz	r0, .L8
 130              		.loc 1 235 0 is_stmt 0 discriminator 1
 131 0006 EB22     		movs	r2, #235
 132 0008 1749     		ldr	r1, .L14
 133 000a 1848     		ldr	r0, .L14+4
 134              	.LVL11:
 135 000c FFF7FEFF 		bl	rt_assert_handler
 136              	.LVL12:
 137              	.L8:
 236:rt_thread/src/ipc.c ****     RT_ASSERT(rt_object_get_type(&sem->parent.parent) == RT_Object_Class_Semaphore);
 138              		.loc 1 236 0 is_stmt 1
 139 0010 3046     		mov	r0, r6
 140 0012 FFF7FEFF 		bl	rt_object_get_type
 141              	.LVL13:
 142 0016 0228     		cmp	r0, #2
 143 0018 04D0     		beq	.L9
 144              		.loc 1 236 0 is_stmt 0 discriminator 1
 145 001a EC22     		movs	r2, #236
 146 001c 1249     		ldr	r1, .L14
 147 001e 1448     		ldr	r0, .L14+8
 148 0020 FFF7FEFF 		bl	rt_assert_handler
 149              	.LVL14:
 150              	.L9:
 237:rt_thread/src/ipc.c ****     RT_ASSERT(rt_object_is_systemobject(&sem->parent.parent));
 151              		.loc 1 237 0 is_stmt 1
 152 0024 3046     		mov	r0, r6
 153 0026 FFF7FEFF 		bl	rt_object_is_systemobject
 154              	.LVL15:
 155 002a 20B9     		cbnz	r0, .L10
 156              		.loc 1 237 0 is_stmt 0 discriminator 1
 157 002c ED22     		movs	r2, #237
 158 002e 0E49     		ldr	r1, .L14
 159 0030 1048     		ldr	r0, .L14+12
 160 0032 FFF7FEFF 		bl	rt_assert_handler
 161              	.LVL16:
 162              	.L10:
 238:rt_thread/src/ipc.c **** 
 239:rt_thread/src/ipc.c ****     /* wakeup all suspended threads */
 240:rt_thread/src/ipc.c ****     rt_ipc_list_resume_all(&(sem->parent.suspend_thread));
 163              		.loc 1 240 0 is_stmt 1
 164 0036 06F11404 		add	r4, r6, #20
 165              	.LVL17:
 166 003a 0CE0     		b	.L11
 167              	.L12:
 168              	.LBB114:
 169              	.LBB115:
ARM GAS  /tmp/ccObKSes.s 			page 9


 166:rt_thread/src/ipc.c **** 
 170              		.loc 1 166 0
 171 003c FFF7FEFF 		bl	rt_hw_interrupt_disable
 172              	.LVL18:
 173 0040 0546     		mov	r5, r0
 174              	.LVL19:
 169:rt_thread/src/ipc.c ****         /* set error code to RT_ERROR */
 175              		.loc 1 169 0
 176 0042 2068     		ldr	r0, [r4]
 177              	.LVL20:
 171:rt_thread/src/ipc.c **** 
 178              		.loc 1 171 0
 179 0044 4FF0FF33 		mov	r3, #-1
 180 0048 C361     		str	r3, [r0, #28]
 178:rt_thread/src/ipc.c **** 
 181              		.loc 1 178 0
 182 004a 1438     		subs	r0, r0, #20
 183              	.LVL21:
 184 004c FFF7FEFF 		bl	rt_thread_resume
 185              	.LVL22:
 181:rt_thread/src/ipc.c ****     }
 186              		.loc 1 181 0
 187 0050 2846     		mov	r0, r5
 188 0052 FFF7FEFF 		bl	rt_hw_interrupt_enable
 189              	.LVL23:
 190              	.L11:
 191              	.LBB116:
 192              	.LBB117:
  50:rt_thread/include/rtservice.h **** }
  51:rt_thread/include/rtservice.h **** 
  52:rt_thread/include/rtservice.h **** /**
  53:rt_thread/include/rtservice.h ****  * @brief insert a node after a list
  54:rt_thread/include/rtservice.h ****  *
  55:rt_thread/include/rtservice.h ****  * @param l list to insert it
  56:rt_thread/include/rtservice.h ****  * @param n new node to be inserted
  57:rt_thread/include/rtservice.h ****  */
  58:rt_thread/include/rtservice.h **** rt_inline void rt_list_insert_after(rt_list_t *l, rt_list_t *n)
  59:rt_thread/include/rtservice.h **** {
  60:rt_thread/include/rtservice.h ****     l->next->prev = n;
  61:rt_thread/include/rtservice.h ****     n->next = l->next;
  62:rt_thread/include/rtservice.h **** 
  63:rt_thread/include/rtservice.h ****     l->next = n;
  64:rt_thread/include/rtservice.h ****     n->prev = l;
  65:rt_thread/include/rtservice.h **** }
  66:rt_thread/include/rtservice.h **** 
  67:rt_thread/include/rtservice.h **** /**
  68:rt_thread/include/rtservice.h ****  * @brief insert a node before a list
  69:rt_thread/include/rtservice.h ****  *
  70:rt_thread/include/rtservice.h ****  * @param n new node to be inserted
  71:rt_thread/include/rtservice.h ****  * @param l list to insert it
  72:rt_thread/include/rtservice.h ****  */
  73:rt_thread/include/rtservice.h **** rt_inline void rt_list_insert_before(rt_list_t *l, rt_list_t *n)
  74:rt_thread/include/rtservice.h **** {
  75:rt_thread/include/rtservice.h ****     l->prev->next = n;
  76:rt_thread/include/rtservice.h ****     n->prev = l->prev;
  77:rt_thread/include/rtservice.h **** 
  78:rt_thread/include/rtservice.h ****     l->prev = n;
ARM GAS  /tmp/ccObKSes.s 			page 10


  79:rt_thread/include/rtservice.h ****     n->next = l;
  80:rt_thread/include/rtservice.h **** }
  81:rt_thread/include/rtservice.h **** 
  82:rt_thread/include/rtservice.h **** /**
  83:rt_thread/include/rtservice.h ****  * @brief remove node from list.
  84:rt_thread/include/rtservice.h ****  * @param n the node to remove from the list.
  85:rt_thread/include/rtservice.h ****  */
  86:rt_thread/include/rtservice.h **** rt_inline void rt_list_remove(rt_list_t *n)
  87:rt_thread/include/rtservice.h **** {
  88:rt_thread/include/rtservice.h ****     n->next->prev = n->prev;
  89:rt_thread/include/rtservice.h ****     n->prev->next = n->next;
  90:rt_thread/include/rtservice.h **** 
  91:rt_thread/include/rtservice.h ****     n->next = n->prev = n;
  92:rt_thread/include/rtservice.h **** }
  93:rt_thread/include/rtservice.h **** 
  94:rt_thread/include/rtservice.h **** /**
  95:rt_thread/include/rtservice.h ****  * @brief tests whether a list is empty
  96:rt_thread/include/rtservice.h ****  * @param l the list to test.
  97:rt_thread/include/rtservice.h ****  */
  98:rt_thread/include/rtservice.h **** rt_inline int rt_list_isempty(const rt_list_t *l)
  99:rt_thread/include/rtservice.h **** {
 100:rt_thread/include/rtservice.h ****     return l->next == l;
 193              		.loc 2 100 0
 194 0056 2368     		ldr	r3, [r4]
 195              	.LVL24:
 196              	.LBE117:
 197              	.LBE116:
 163:rt_thread/src/ipc.c ****     {
 198              		.loc 1 163 0
 199 0058 9C42     		cmp	r4, r3
 200 005a EFD1     		bne	.L12
 201              	.LVL25:
 202              	.LBE115:
 203              	.LBE114:
 241:rt_thread/src/ipc.c **** 
 242:rt_thread/src/ipc.c ****     /* detach semaphore object */
 243:rt_thread/src/ipc.c ****     rt_object_detach(&(sem->parent.parent));
 204              		.loc 1 243 0
 205 005c 3046     		mov	r0, r6
 206 005e FFF7FEFF 		bl	rt_object_detach
 207              	.LVL26:
 244:rt_thread/src/ipc.c **** 
 245:rt_thread/src/ipc.c ****     return RT_EOK;
 246:rt_thread/src/ipc.c **** }
 208              		.loc 1 246 0
 209 0062 0020     		movs	r0, #0
 210 0064 70BD     		pop	{r4, r5, r6, pc}
 211              	.LVL27:
 212              	.L15:
 213 0066 00BF     		.align	2
 214              	.L14:
 215 0068 00000000 		.word	.LANCHOR1
 216 006c 00000000 		.word	.LC0
 217 0070 24000000 		.word	.LC2
 218 0074 6C000000 		.word	.LC3
 219              		.cfi_endproc
 220              	.LFE20:
ARM GAS  /tmp/ccObKSes.s 			page 11


 222              		.section	.text.rt_sem_create,"ax",%progbits
 223              		.align	2
 224              		.global	rt_sem_create
 225              		.thumb
 226              		.thumb_func
 228              	rt_sem_create:
 229              	.LFB21:
 247:rt_thread/src/ipc.c **** RTM_EXPORT(rt_sem_detach);
 248:rt_thread/src/ipc.c **** 
 249:rt_thread/src/ipc.c **** #ifdef RT_USING_HEAP
 250:rt_thread/src/ipc.c **** /**
 251:rt_thread/src/ipc.c ****  * This function will create a semaphore from system resource
 252:rt_thread/src/ipc.c ****  *
 253:rt_thread/src/ipc.c ****  * @param name the name of semaphore
 254:rt_thread/src/ipc.c ****  * @param value the initial value of semaphore
 255:rt_thread/src/ipc.c ****  * @param flag the flag of semaphore
 256:rt_thread/src/ipc.c ****  *
 257:rt_thread/src/ipc.c ****  * @return the created semaphore, RT_NULL on error happen
 258:rt_thread/src/ipc.c ****  *
 259:rt_thread/src/ipc.c ****  * @see rt_sem_init
 260:rt_thread/src/ipc.c ****  */
 261:rt_thread/src/ipc.c **** rt_sem_t rt_sem_create(const char *name, rt_uint32_t value, rt_uint8_t flag)
 262:rt_thread/src/ipc.c **** {
 230              		.loc 1 262 0
 231              		.cfi_startproc
 232              		@ args = 0, pretend = 0, frame = 0
 233              		@ frame_needed = 0, uses_anonymous_args = 0
 234              	.LVL28:
 235 0000 2DE9F041 		push	{r4, r5, r6, r7, r8, lr}
 236              	.LCFI2:
 237              		.cfi_def_cfa_offset 24
 238              		.cfi_offset 4, -24
 239              		.cfi_offset 5, -20
 240              		.cfi_offset 6, -16
 241              		.cfi_offset 7, -12
 242              		.cfi_offset 8, -8
 243              		.cfi_offset 14, -4
 244 0004 0546     		mov	r5, r0
 245 0006 0C46     		mov	r4, r1
 246 0008 1746     		mov	r7, r2
 247              	.LBB118:
 263:rt_thread/src/ipc.c ****     rt_sem_t sem;
 264:rt_thread/src/ipc.c **** 
 265:rt_thread/src/ipc.c ****     RT_DEBUG_NOT_IN_INTERRUPT;
 248              		.loc 1 265 0
 249 000a FFF7FEFF 		bl	rt_hw_interrupt_disable
 250              	.LVL29:
 251 000e 0646     		mov	r6, r0
 252              	.LVL30:
 253 0010 FFF7FEFF 		bl	rt_interrupt_get_nest
 254              	.LVL31:
 255 0014 58B1     		cbz	r0, .L17
 256              		.loc 1 265 0 is_stmt 0 discriminator 1
 257 0016 DFF85480 		ldr	r8, .L21+8
 258 001a 4146     		mov	r1, r8
 259 001c 1148     		ldr	r0, .L21
 260 001e FFF7FEFF 		bl	rt_kprintf
ARM GAS  /tmp/ccObKSes.s 			page 12


 261              	.LVL32:
 262 0022 40F20912 		movw	r2, #265
 263 0026 4146     		mov	r1, r8
 264 0028 0F48     		ldr	r0, .L21+4
 265 002a FFF7FEFF 		bl	rt_assert_handler
 266              	.LVL33:
 267              	.L17:
 268              		.loc 1 265 0 discriminator 5
 269 002e 3046     		mov	r0, r6
 270 0030 FFF7FEFF 		bl	rt_hw_interrupt_enable
 271              	.LVL34:
 272              	.LBE118:
 266:rt_thread/src/ipc.c ****     RT_ASSERT(value < 0x10000U);
 273              		.loc 1 266 0 is_stmt 1 discriminator 5
 274 0034 B4F5803F 		cmp	r4, #65536
 275 0038 05D3     		bcc	.L18
 276              		.loc 1 266 0 is_stmt 0 discriminator 1
 277 003a 4FF48572 		mov	r2, #266
 278 003e 0B49     		ldr	r1, .L21+8
 279 0040 0B48     		ldr	r0, .L21+12
 280 0042 FFF7FEFF 		bl	rt_assert_handler
 281              	.LVL35:
 282              	.L18:
 267:rt_thread/src/ipc.c **** 
 268:rt_thread/src/ipc.c ****     /* allocate object */
 269:rt_thread/src/ipc.c ****     sem = (rt_sem_t)rt_object_allocate(RT_Object_Class_Semaphore, name);
 283              		.loc 1 269 0 is_stmt 1
 284 0046 2946     		mov	r1, r5
 285 0048 0220     		movs	r0, #2
 286 004a FFF7FEFF 		bl	rt_object_allocate
 287              	.LVL36:
 270:rt_thread/src/ipc.c ****     if (sem == RT_NULL)
 288              		.loc 1 270 0
 289 004e 0346     		mov	r3, r0
 290 0050 28B1     		cbz	r0, .L19
 291              	.LVL37:
 292              	.LBB119:
 293              	.LBB120:
  64:rt_thread/src/ipc.c **** 
 294              		.loc 1 64 0
 295 0052 00F11402 		add	r2, r0, #20
 296              	.LVL38:
 297              	.LBB121:
 298              	.LBB122:
  49:rt_thread/include/rtservice.h **** }
 299              		.loc 2 49 0
 300 0056 8261     		str	r2, [r0, #24]
 301 0058 4261     		str	r2, [r0, #20]
 302              	.LVL39:
 303              	.LBE122:
 304              	.LBE121:
 305              	.LBE120:
 306              	.LBE119:
 271:rt_thread/src/ipc.c ****         return sem;
 272:rt_thread/src/ipc.c **** 
 273:rt_thread/src/ipc.c ****     /* initialize ipc object */
 274:rt_thread/src/ipc.c ****     rt_ipc_object_init(&(sem->parent));
ARM GAS  /tmp/ccObKSes.s 			page 13


 275:rt_thread/src/ipc.c **** 
 276:rt_thread/src/ipc.c ****     /* set initial value */
 277:rt_thread/src/ipc.c ****     sem->value = value;
 307              		.loc 1 277 0
 308 005a 8483     		strh	r4, [r0, #28]	@ movhi
 278:rt_thread/src/ipc.c **** 
 279:rt_thread/src/ipc.c ****     /* set parent */
 280:rt_thread/src/ipc.c ****     sem->parent.parent.flag = flag;
 309              		.loc 1 280 0
 310 005c 4772     		strb	r7, [r0, #9]
 311              	.L19:
 281:rt_thread/src/ipc.c **** 
 282:rt_thread/src/ipc.c ****     return sem;
 283:rt_thread/src/ipc.c **** }
 312              		.loc 1 283 0
 313 005e 1846     		mov	r0, r3
 314              	.LVL40:
 315 0060 BDE8F081 		pop	{r4, r5, r6, r7, r8, pc}
 316              	.LVL41:
 317              	.L22:
 318              		.align	2
 319              	.L21:
 320 0064 9C000000 		.word	.LC4
 321 0068 C4000000 		.word	.LC5
 322 006c 00000000 		.word	.LANCHOR2
 323 0070 10000000 		.word	.LC1
 324              		.cfi_endproc
 325              	.LFE21:
 327              		.section	.text.rt_sem_delete,"ax",%progbits
 328              		.align	2
 329              		.global	rt_sem_delete
 330              		.thumb
 331              		.thumb_func
 333              	rt_sem_delete:
 334              	.LFB22:
 284:rt_thread/src/ipc.c **** RTM_EXPORT(rt_sem_create);
 285:rt_thread/src/ipc.c **** 
 286:rt_thread/src/ipc.c **** /**
 287:rt_thread/src/ipc.c ****  * This function will delete a semaphore object and release the memory
 288:rt_thread/src/ipc.c ****  *
 289:rt_thread/src/ipc.c ****  * @param sem the semaphore object
 290:rt_thread/src/ipc.c ****  *
 291:rt_thread/src/ipc.c ****  * @return the error code
 292:rt_thread/src/ipc.c ****  *
 293:rt_thread/src/ipc.c ****  * @see rt_sem_detach
 294:rt_thread/src/ipc.c ****  */
 295:rt_thread/src/ipc.c **** rt_err_t rt_sem_delete(rt_sem_t sem)
 296:rt_thread/src/ipc.c **** {
 335              		.loc 1 296 0
 336              		.cfi_startproc
 337              		@ args = 0, pretend = 0, frame = 0
 338              		@ frame_needed = 0, uses_anonymous_args = 0
 339              	.LVL42:
 340 0000 70B5     		push	{r4, r5, r6, lr}
 341              	.LCFI3:
 342              		.cfi_def_cfa_offset 16
 343              		.cfi_offset 4, -16
ARM GAS  /tmp/ccObKSes.s 			page 14


 344              		.cfi_offset 5, -12
 345              		.cfi_offset 6, -8
 346              		.cfi_offset 14, -4
 347 0002 0646     		mov	r6, r0
 348              	.LBB128:
 297:rt_thread/src/ipc.c ****     RT_DEBUG_NOT_IN_INTERRUPT;
 349              		.loc 1 297 0
 350 0004 FFF7FEFF 		bl	rt_hw_interrupt_disable
 351              	.LVL43:
 352 0008 0446     		mov	r4, r0
 353              	.LVL44:
 354 000a FFF7FEFF 		bl	rt_interrupt_get_nest
 355              	.LVL45:
 356 000e 50B1     		cbz	r0, .L24
 357              		.loc 1 297 0 is_stmt 0 discriminator 1
 358 0010 204D     		ldr	r5, .L31
 359 0012 2946     		mov	r1, r5
 360 0014 2048     		ldr	r0, .L31+4
 361 0016 FFF7FEFF 		bl	rt_kprintf
 362              	.LVL46:
 363 001a 40F22912 		movw	r2, #297
 364 001e 2946     		mov	r1, r5
 365 0020 1E48     		ldr	r0, .L31+8
 366 0022 FFF7FEFF 		bl	rt_assert_handler
 367              	.LVL47:
 368              	.L24:
 369              		.loc 1 297 0 discriminator 5
 370 0026 2046     		mov	r0, r4
 371 0028 FFF7FEFF 		bl	rt_hw_interrupt_enable
 372              	.LVL48:
 373              	.LBE128:
 298:rt_thread/src/ipc.c **** 
 299:rt_thread/src/ipc.c ****     /* parameter check */
 300:rt_thread/src/ipc.c ****     RT_ASSERT(sem != RT_NULL);
 374              		.loc 1 300 0 is_stmt 1 discriminator 5
 375 002c 2EB9     		cbnz	r6, .L25
 376              		.loc 1 300 0 is_stmt 0 discriminator 1
 377 002e 4FF49672 		mov	r2, #300
 378 0032 1849     		ldr	r1, .L31
 379 0034 1A48     		ldr	r0, .L31+12
 380 0036 FFF7FEFF 		bl	rt_assert_handler
 381              	.LVL49:
 382              	.L25:
 301:rt_thread/src/ipc.c ****     RT_ASSERT(rt_object_get_type(&sem->parent.parent) == RT_Object_Class_Semaphore);
 383              		.loc 1 301 0 is_stmt 1
 384 003a 3046     		mov	r0, r6
 385 003c FFF7FEFF 		bl	rt_object_get_type
 386              	.LVL50:
 387 0040 0228     		cmp	r0, #2
 388 0042 05D0     		beq	.L26
 389              		.loc 1 301 0 is_stmt 0 discriminator 1
 390 0044 40F22D12 		movw	r2, #301
 391 0048 1249     		ldr	r1, .L31
 392 004a 1648     		ldr	r0, .L31+16
 393 004c FFF7FEFF 		bl	rt_assert_handler
 394              	.LVL51:
 395              	.L26:
ARM GAS  /tmp/ccObKSes.s 			page 15


 302:rt_thread/src/ipc.c ****     RT_ASSERT(rt_object_is_systemobject(&sem->parent.parent) == RT_FALSE);
 396              		.loc 1 302 0 is_stmt 1
 397 0050 3046     		mov	r0, r6
 398 0052 FFF7FEFF 		bl	rt_object_is_systemobject
 399              	.LVL52:
 400 0056 28B1     		cbz	r0, .L27
 401              		.loc 1 302 0 is_stmt 0 discriminator 1
 402 0058 4FF49772 		mov	r2, #302
 403 005c 0D49     		ldr	r1, .L31
 404 005e 1248     		ldr	r0, .L31+20
 405 0060 FFF7FEFF 		bl	rt_assert_handler
 406              	.LVL53:
 407              	.L27:
 303:rt_thread/src/ipc.c **** 
 304:rt_thread/src/ipc.c ****     /* wakeup all suspended threads */
 305:rt_thread/src/ipc.c ****     rt_ipc_list_resume_all(&(sem->parent.suspend_thread));
 408              		.loc 1 305 0 is_stmt 1
 409 0064 06F11404 		add	r4, r6, #20
 410              	.LVL54:
 411 0068 0CE0     		b	.L28
 412              	.L29:
 413              	.LBB129:
 414              	.LBB130:
 166:rt_thread/src/ipc.c **** 
 415              		.loc 1 166 0
 416 006a FFF7FEFF 		bl	rt_hw_interrupt_disable
 417              	.LVL55:
 418 006e 0546     		mov	r5, r0
 419              	.LVL56:
 169:rt_thread/src/ipc.c ****         /* set error code to RT_ERROR */
 420              		.loc 1 169 0
 421 0070 2068     		ldr	r0, [r4]
 422              	.LVL57:
 171:rt_thread/src/ipc.c **** 
 423              		.loc 1 171 0
 424 0072 4FF0FF33 		mov	r3, #-1
 425 0076 C361     		str	r3, [r0, #28]
 178:rt_thread/src/ipc.c **** 
 426              		.loc 1 178 0
 427 0078 1438     		subs	r0, r0, #20
 428              	.LVL58:
 429 007a FFF7FEFF 		bl	rt_thread_resume
 430              	.LVL59:
 181:rt_thread/src/ipc.c ****     }
 431              		.loc 1 181 0
 432 007e 2846     		mov	r0, r5
 433 0080 FFF7FEFF 		bl	rt_hw_interrupt_enable
 434              	.LVL60:
 435              	.L28:
 436              	.LBB131:
 437              	.LBB132:
 438              		.loc 2 100 0
 439 0084 2368     		ldr	r3, [r4]
 440              	.LVL61:
 441              	.LBE132:
 442              	.LBE131:
 163:rt_thread/src/ipc.c ****     {
ARM GAS  /tmp/ccObKSes.s 			page 16


 443              		.loc 1 163 0
 444 0086 9C42     		cmp	r4, r3
 445 0088 EFD1     		bne	.L29
 446              	.LVL62:
 447              	.LBE130:
 448              	.LBE129:
 306:rt_thread/src/ipc.c **** 
 307:rt_thread/src/ipc.c ****     /* delete semaphore object */
 308:rt_thread/src/ipc.c ****     rt_object_delete(&(sem->parent.parent));
 449              		.loc 1 308 0
 450 008a 3046     		mov	r0, r6
 451 008c FFF7FEFF 		bl	rt_object_delete
 452              	.LVL63:
 309:rt_thread/src/ipc.c **** 
 310:rt_thread/src/ipc.c ****     return RT_EOK;
 311:rt_thread/src/ipc.c **** }
 453              		.loc 1 311 0
 454 0090 0020     		movs	r0, #0
 455 0092 70BD     		pop	{r4, r5, r6, pc}
 456              	.LVL64:
 457              	.L32:
 458              		.align	2
 459              	.L31:
 460 0094 00000000 		.word	.LANCHOR3
 461 0098 9C000000 		.word	.LC4
 462 009c C4000000 		.word	.LC5
 463 00a0 00000000 		.word	.LC0
 464 00a4 24000000 		.word	.LC2
 465 00a8 C8000000 		.word	.LC6
 466              		.cfi_endproc
 467              	.LFE22:
 469              		.section	.text.rt_sem_take,"ax",%progbits
 470              		.align	2
 471              		.global	rt_sem_take
 472              		.thumb
 473              		.thumb_func
 475              	rt_sem_take:
 476              	.LFB23:
 312:rt_thread/src/ipc.c **** RTM_EXPORT(rt_sem_delete);
 313:rt_thread/src/ipc.c **** #endif
 314:rt_thread/src/ipc.c **** 
 315:rt_thread/src/ipc.c **** /**
 316:rt_thread/src/ipc.c ****  * This function will take a semaphore, if the semaphore is unavailable, the
 317:rt_thread/src/ipc.c ****  * thread shall wait for a specified time.
 318:rt_thread/src/ipc.c ****  *
 319:rt_thread/src/ipc.c ****  * @param sem the semaphore object
 320:rt_thread/src/ipc.c ****  * @param time the waiting time
 321:rt_thread/src/ipc.c ****  *
 322:rt_thread/src/ipc.c ****  * @return the error code
 323:rt_thread/src/ipc.c ****  */
 324:rt_thread/src/ipc.c **** rt_err_t rt_sem_take(rt_sem_t sem, rt_int32_t time)
 325:rt_thread/src/ipc.c **** {
 477              		.loc 1 325 0
 478              		.cfi_startproc
 479              		@ args = 0, pretend = 0, frame = 8
 480              		@ frame_needed = 0, uses_anonymous_args = 0
 481              	.LVL65:
ARM GAS  /tmp/ccObKSes.s 			page 17


 482 0000 2DE9F041 		push	{r4, r5, r6, r7, r8, lr}
 483              	.LCFI4:
 484              		.cfi_def_cfa_offset 24
 485              		.cfi_offset 4, -24
 486              		.cfi_offset 5, -20
 487              		.cfi_offset 6, -16
 488              		.cfi_offset 7, -12
 489              		.cfi_offset 8, -8
 490              		.cfi_offset 14, -4
 491 0004 82B0     		sub	sp, sp, #8
 492              	.LCFI5:
 493              		.cfi_def_cfa_offset 32
 494 0006 0191     		str	r1, [sp, #4]
 326:rt_thread/src/ipc.c ****     register rt_base_t temp;
 327:rt_thread/src/ipc.c ****     struct rt_thread *thread;
 328:rt_thread/src/ipc.c **** 
 329:rt_thread/src/ipc.c ****     /* parameter check */
 330:rt_thread/src/ipc.c ****     RT_ASSERT(sem != RT_NULL);
 495              		.loc 1 330 0
 496 0008 0446     		mov	r4, r0
 497 000a 28B9     		cbnz	r0, .L34
 498              		.loc 1 330 0 is_stmt 0 discriminator 1
 499 000c 4FF4A572 		mov	r2, #330
 500 0010 5249     		ldr	r1, .L53
 501              	.LVL66:
 502 0012 5348     		ldr	r0, .L53+4
 503              	.LVL67:
 504 0014 FFF7FEFF 		bl	rt_assert_handler
 505              	.LVL68:
 506              	.L34:
 331:rt_thread/src/ipc.c ****     RT_ASSERT(rt_object_get_type(&sem->parent.parent) == RT_Object_Class_Semaphore);
 507              		.loc 1 331 0 is_stmt 1
 508 0018 2046     		mov	r0, r4
 509 001a FFF7FEFF 		bl	rt_object_get_type
 510              	.LVL69:
 511 001e 0228     		cmp	r0, #2
 512 0020 05D0     		beq	.L35
 513              		.loc 1 331 0 is_stmt 0 discriminator 1
 514 0022 40F24B12 		movw	r2, #331
 515 0026 4D49     		ldr	r1, .L53
 516 0028 4E48     		ldr	r0, .L53+8
 517 002a FFF7FEFF 		bl	rt_assert_handler
 518              	.LVL70:
 519              	.L35:
 332:rt_thread/src/ipc.c **** 
 333:rt_thread/src/ipc.c ****     RT_OBJECT_HOOK_CALL(rt_object_trytake_hook, (&(sem->parent.parent)));
 520              		.loc 1 333 0 is_stmt 1
 521 002e 4E4B     		ldr	r3, .L53+12
 522 0030 1B68     		ldr	r3, [r3]
 523 0032 0BB1     		cbz	r3, .L36
 524              		.loc 1 333 0 is_stmt 0 discriminator 1
 525 0034 2046     		mov	r0, r4
 526 0036 9847     		blx	r3
 527              	.LVL71:
 528              	.L36:
 334:rt_thread/src/ipc.c **** 
 335:rt_thread/src/ipc.c ****     /* disable interrupt */
ARM GAS  /tmp/ccObKSes.s 			page 18


 336:rt_thread/src/ipc.c ****     temp = rt_hw_interrupt_disable();
 529              		.loc 1 336 0 is_stmt 1
 530 0038 FFF7FEFF 		bl	rt_hw_interrupt_disable
 531              	.LVL72:
 532 003c 0746     		mov	r7, r0
 533              	.LVL73:
 337:rt_thread/src/ipc.c **** 
 338:rt_thread/src/ipc.c ****     RT_DEBUG_LOG(RT_DEBUG_IPC, ("thread %s take sem:%s, which value is: %d\n",
 339:rt_thread/src/ipc.c ****                                 rt_thread_self()->name,
 340:rt_thread/src/ipc.c ****                                 ((struct rt_object *)sem)->name,
 341:rt_thread/src/ipc.c ****                                 sem->value));
 342:rt_thread/src/ipc.c **** 
 343:rt_thread/src/ipc.c ****     if (sem->value > 0)
 534              		.loc 1 343 0
 535 003e A38B     		ldrh	r3, [r4, #28]
 536 0040 23B1     		cbz	r3, .L37
 344:rt_thread/src/ipc.c ****     {
 345:rt_thread/src/ipc.c ****         /* semaphore is available */
 346:rt_thread/src/ipc.c ****         sem->value --;
 537              		.loc 1 346 0
 538 0042 013B     		subs	r3, r3, #1
 539 0044 A383     		strh	r3, [r4, #28]	@ movhi
 347:rt_thread/src/ipc.c **** 
 348:rt_thread/src/ipc.c ****         /* enable interrupt */
 349:rt_thread/src/ipc.c ****         rt_hw_interrupt_enable(temp);
 540              		.loc 1 349 0
 541 0046 FFF7FEFF 		bl	rt_hw_interrupt_enable
 542              	.LVL74:
 543 004a 7CE0     		b	.L38
 544              	.LVL75:
 545              	.L37:
 350:rt_thread/src/ipc.c ****     }
 351:rt_thread/src/ipc.c ****     else
 352:rt_thread/src/ipc.c ****     {
 353:rt_thread/src/ipc.c ****         /* no waiting, return with timeout */
 354:rt_thread/src/ipc.c ****         if (time == 0)
 546              		.loc 1 354 0
 547 004c 019B     		ldr	r3, [sp, #4]
 548 004e 23B9     		cbnz	r3, .L39
 355:rt_thread/src/ipc.c ****         {
 356:rt_thread/src/ipc.c ****             rt_hw_interrupt_enable(temp);
 549              		.loc 1 356 0
 550 0050 FFF7FEFF 		bl	rt_hw_interrupt_enable
 551              	.LVL76:
 357:rt_thread/src/ipc.c **** 
 358:rt_thread/src/ipc.c ****             return -RT_ETIMEOUT;
 552              		.loc 1 358 0
 553 0054 6FF00100 		mvn	r0, #1
 554 0058 7DE0     		b	.L40
 555              	.LVL77:
 556              	.L39:
 557              	.LBB144:
 359:rt_thread/src/ipc.c ****         }
 360:rt_thread/src/ipc.c ****         else
 361:rt_thread/src/ipc.c ****         {
 362:rt_thread/src/ipc.c ****             /* current context checking */
 363:rt_thread/src/ipc.c ****             RT_DEBUG_IN_THREAD_CONTEXT;
ARM GAS  /tmp/ccObKSes.s 			page 19


 558              		.loc 1 363 0
 559 005a FFF7FEFF 		bl	rt_hw_interrupt_disable
 560              	.LVL78:
 561 005e 0546     		mov	r5, r0
 562              	.LVL79:
 563 0060 FFF7FEFF 		bl	rt_thread_self
 564              	.LVL80:
 565 0064 50B9     		cbnz	r0, .L41
 566              		.loc 1 363 0 is_stmt 0 discriminator 1
 567 0066 3D4E     		ldr	r6, .L53
 568 0068 3146     		mov	r1, r6
 569 006a 4048     		ldr	r0, .L53+16
 570 006c FFF7FEFF 		bl	rt_kprintf
 571              	.LVL81:
 572 0070 40F26B12 		movw	r2, #363
 573 0074 3146     		mov	r1, r6
 574 0076 3E48     		ldr	r0, .L53+20
 575 0078 FFF7FEFF 		bl	rt_assert_handler
 576              	.LVL82:
 577              	.L41:
 578              	.LBB145:
 579              		.loc 1 363 0 discriminator 5
 580 007c FFF7FEFF 		bl	rt_hw_interrupt_disable
 581              	.LVL83:
 582 0080 0646     		mov	r6, r0
 583              	.LVL84:
 584 0082 FFF7FEFF 		bl	rt_interrupt_get_nest
 585              	.LVL85:
 586 0086 58B1     		cbz	r0, .L42
 587              		.loc 1 363 0 discriminator 6
 588 0088 DFF8D080 		ldr	r8, .L53
 589 008c 4146     		mov	r1, r8
 590 008e 3948     		ldr	r0, .L53+24
 591 0090 FFF7FEFF 		bl	rt_kprintf
 592              	.LVL86:
 593 0094 40F26B12 		movw	r2, #363
 594 0098 4146     		mov	r1, r8
 595 009a 3548     		ldr	r0, .L53+20
 596 009c FFF7FEFF 		bl	rt_assert_handler
 597              	.LVL87:
 598              	.L42:
 599              		.loc 1 363 0 discriminator 10
 600 00a0 3046     		mov	r0, r6
 601 00a2 FFF7FEFF 		bl	rt_hw_interrupt_enable
 602              	.LVL88:
 603              	.LBE145:
 604 00a6 2846     		mov	r0, r5
 605 00a8 FFF7FEFF 		bl	rt_hw_interrupt_enable
 606              	.LVL89:
 607              	.LBE144:
 364:rt_thread/src/ipc.c **** 
 365:rt_thread/src/ipc.c ****             /* semaphore is unavailable, push to suspend list */
 366:rt_thread/src/ipc.c ****             /* get current thread */
 367:rt_thread/src/ipc.c ****             thread = rt_thread_self();
 608              		.loc 1 367 0 is_stmt 1 discriminator 10
 609 00ac FFF7FEFF 		bl	rt_thread_self
 610              	.LVL90:
ARM GAS  /tmp/ccObKSes.s 			page 20


 611 00b0 0546     		mov	r5, r0
 612              	.LVL91:
 368:rt_thread/src/ipc.c **** 
 369:rt_thread/src/ipc.c ****             /* reset thread error number */
 370:rt_thread/src/ipc.c ****             thread->error = RT_EOK;
 613              		.loc 1 370 0 discriminator 10
 614 00b2 0023     		movs	r3, #0
 615 00b4 0363     		str	r3, [r0, #48]
 371:rt_thread/src/ipc.c **** 
 372:rt_thread/src/ipc.c ****             RT_DEBUG_LOG(RT_DEBUG_IPC, ("sem take: suspend thread - %s\n",
 373:rt_thread/src/ipc.c ****                                         thread->name));
 374:rt_thread/src/ipc.c **** 
 375:rt_thread/src/ipc.c ****             /* suspend thread */
 376:rt_thread/src/ipc.c ****             rt_ipc_list_suspend(&(sem->parent.suspend_thread),
 616              		.loc 1 376 0 discriminator 10
 617 00b6 04F11406 		add	r6, r4, #20
 618              	.LVL92:
 619 00ba 94F80980 		ldrb	r8, [r4, #9]	@ zero_extendqisi2
 620              	.LVL93:
 621              	.LBB146:
 622              	.LBB147:
  85:rt_thread/src/ipc.c **** 
 623              		.loc 1 85 0 discriminator 10
 624 00be FFF7FEFF 		bl	rt_thread_suspend
 625              	.LVL94:
  87:rt_thread/src/ipc.c ****     {
 626              		.loc 1 87 0 discriminator 10
 627 00c2 B8F1000F 		cmp	r8, #0
 628 00c6 03D0     		beq	.L44
 629 00c8 B8F1010F 		cmp	r8, #1
 630 00cc 09D0     		beq	.L45
 631 00ce 26E0     		b	.L43
 632              	.L44:
  90:rt_thread/src/ipc.c ****         break;
 633              		.loc 1 90 0
 634 00d0 05F11403 		add	r3, r5, #20
 635              	.LVL95:
 636              	.LBB148:
 637              	.LBB149:
  75:rt_thread/include/rtservice.h ****     n->prev = l->prev;
 638              		.loc 2 75 0
 639 00d4 7268     		ldr	r2, [r6, #4]
 640 00d6 1360     		str	r3, [r2]
  76:rt_thread/include/rtservice.h **** 
 641              		.loc 2 76 0
 642 00d8 7268     		ldr	r2, [r6, #4]
 643 00da AA61     		str	r2, [r5, #24]
  78:rt_thread/include/rtservice.h ****     n->next = l;
 644              		.loc 2 78 0
 645 00dc 7360     		str	r3, [r6, #4]
  79:rt_thread/include/rtservice.h **** }
 646              		.loc 2 79 0
 647 00de 6E61     		str	r6, [r5, #20]
 648 00e0 1DE0     		b	.L43
 649              	.LVL96:
 650              	.L45:
 651              	.LBE149:
ARM GAS  /tmp/ccObKSes.s 			page 21


 652              	.LBE148:
 653              	.LBB150:
  99:rt_thread/src/ipc.c ****             {
 654              		.loc 1 99 0
 655 00e2 6369     		ldr	r3, [r4, #20]
 656              	.LVL97:
 657 00e4 0FE0     		b	.L46
 658              	.L49:
 659              	.LVL98:
 104:rt_thread/src/ipc.c ****                 {
 660              		.loc 1 104 0
 661 00e6 95F83510 		ldrb	r1, [r5, #53]	@ zero_extendqisi2
 662 00ea 93F82120 		ldrb	r2, [r3, #33]	@ zero_extendqisi2
 663 00ee 9142     		cmp	r1, r2
 664 00f0 08D2     		bcs	.L47
 107:rt_thread/src/ipc.c ****                     break;
 665              		.loc 1 107 0
 666 00f2 05F11402 		add	r2, r5, #20
 667              	.LVL99:
 668              	.LBB151:
 669              	.LBB152:
  75:rt_thread/include/rtservice.h ****     n->prev = l->prev;
 670              		.loc 2 75 0
 671 00f6 5968     		ldr	r1, [r3, #4]
 672 00f8 0A60     		str	r2, [r1]
  76:rt_thread/include/rtservice.h **** 
 673              		.loc 2 76 0
 674 00fa 5968     		ldr	r1, [r3, #4]
 675 00fc A961     		str	r1, [r5, #24]
  78:rt_thread/include/rtservice.h ****     n->next = l;
 676              		.loc 2 78 0
 677 00fe 5A60     		str	r2, [r3, #4]
  79:rt_thread/include/rtservice.h **** }
 678              		.loc 2 79 0
 679 0100 6B61     		str	r3, [r5, #20]
 680 0102 02E0     		b	.L48
 681              	.LVL100:
 682              	.L47:
 683              	.LBE152:
 684              	.LBE151:
  99:rt_thread/src/ipc.c ****             {
 685              		.loc 1 99 0
 686 0104 1B68     		ldr	r3, [r3]
 687              	.LVL101:
 688              	.L46:
 689 0106 9E42     		cmp	r6, r3
 690 0108 EDD1     		bne	.L49
 691              	.L48:
 116:rt_thread/src/ipc.c ****                 rt_list_insert_before(list, &(thread->tlist));
 692              		.loc 1 116 0
 693 010a 9E42     		cmp	r6, r3
 694 010c 07D1     		bne	.L43
 117:rt_thread/src/ipc.c ****         }
 695              		.loc 1 117 0
 696 010e 05F11403 		add	r3, r5, #20
 697              	.LVL102:
 698              	.LBB153:
ARM GAS  /tmp/ccObKSes.s 			page 22


 699              	.LBB154:
  75:rt_thread/include/rtservice.h ****     n->prev = l->prev;
 700              		.loc 2 75 0
 701 0112 7268     		ldr	r2, [r6, #4]
 702 0114 1360     		str	r3, [r2]
  76:rt_thread/include/rtservice.h **** 
 703              		.loc 2 76 0
 704 0116 7268     		ldr	r2, [r6, #4]
 705 0118 AA61     		str	r2, [r5, #24]
  78:rt_thread/include/rtservice.h ****     n->next = l;
 706              		.loc 2 78 0
 707 011a 7360     		str	r3, [r6, #4]
  79:rt_thread/include/rtservice.h **** }
 708              		.loc 2 79 0
 709 011c 6E61     		str	r6, [r5, #20]
 710              	.LVL103:
 711              	.L43:
 712              	.LBE154:
 713              	.LBE153:
 714              	.LBE150:
 715              	.LBE147:
 716              	.LBE146:
 377:rt_thread/src/ipc.c ****                                 thread,
 378:rt_thread/src/ipc.c ****                                 sem->parent.parent.flag);
 379:rt_thread/src/ipc.c **** 
 380:rt_thread/src/ipc.c ****             /* has waiting time, start thread timer */
 381:rt_thread/src/ipc.c ****             if (time > 0)
 717              		.loc 1 381 0
 718 011e 019B     		ldr	r3, [sp, #4]
 719 0120 002B     		cmp	r3, #0
 720 0122 09DD     		ble	.L50
 382:rt_thread/src/ipc.c ****             {
 383:rt_thread/src/ipc.c ****                 RT_DEBUG_LOG(RT_DEBUG_IPC, ("set thread:%s to timer list\n",
 384:rt_thread/src/ipc.c ****                                             thread->name));
 385:rt_thread/src/ipc.c **** 
 386:rt_thread/src/ipc.c ****                 /* reset the timeout of thread timer and start it */
 387:rt_thread/src/ipc.c ****                 rt_timer_control(&(thread->thread_timer),
 721              		.loc 1 387 0
 722 0124 05F16006 		add	r6, r5, #96
 723 0128 01AA     		add	r2, sp, #4
 724              	.LVL104:
 725 012a 0021     		movs	r1, #0
 726 012c 3046     		mov	r0, r6
 727 012e FFF7FEFF 		bl	rt_timer_control
 728              	.LVL105:
 388:rt_thread/src/ipc.c ****                                  RT_TIMER_CTRL_SET_TIME,
 389:rt_thread/src/ipc.c ****                                  &time);
 390:rt_thread/src/ipc.c ****                 rt_timer_start(&(thread->thread_timer));
 729              		.loc 1 390 0
 730 0132 3046     		mov	r0, r6
 731 0134 FFF7FEFF 		bl	rt_timer_start
 732              	.LVL106:
 733              	.L50:
 391:rt_thread/src/ipc.c ****             }
 392:rt_thread/src/ipc.c **** 
 393:rt_thread/src/ipc.c ****             /* enable interrupt */
 394:rt_thread/src/ipc.c ****             rt_hw_interrupt_enable(temp);
ARM GAS  /tmp/ccObKSes.s 			page 23


 734              		.loc 1 394 0
 735 0138 3846     		mov	r0, r7
 736 013a FFF7FEFF 		bl	rt_hw_interrupt_enable
 737              	.LVL107:
 395:rt_thread/src/ipc.c **** 
 396:rt_thread/src/ipc.c ****             /* do schedule */
 397:rt_thread/src/ipc.c ****             rt_schedule();
 738              		.loc 1 397 0
 739 013e FFF7FEFF 		bl	rt_schedule
 740              	.LVL108:
 398:rt_thread/src/ipc.c **** 
 399:rt_thread/src/ipc.c ****             if (thread->error != RT_EOK)
 741              		.loc 1 399 0
 742 0142 286B     		ldr	r0, [r5, #48]
 743 0144 38B9     		cbnz	r0, .L40
 744              	.LVL109:
 745              	.L38:
 400:rt_thread/src/ipc.c ****             {
 401:rt_thread/src/ipc.c ****                 return thread->error;
 402:rt_thread/src/ipc.c ****             }
 403:rt_thread/src/ipc.c ****         }
 404:rt_thread/src/ipc.c ****     }
 405:rt_thread/src/ipc.c **** 
 406:rt_thread/src/ipc.c ****     RT_OBJECT_HOOK_CALL(rt_object_take_hook, (&(sem->parent.parent)));
 746              		.loc 1 406 0
 747 0146 0C4B     		ldr	r3, .L53+28
 748 0148 1B68     		ldr	r3, [r3]
 749 014a 1BB1     		cbz	r3, .L51
 750              		.loc 1 406 0 is_stmt 0 discriminator 1
 751 014c 2046     		mov	r0, r4
 752 014e 9847     		blx	r3
 753              	.LVL110:
 407:rt_thread/src/ipc.c **** 
 408:rt_thread/src/ipc.c ****     return RT_EOK;
 754              		.loc 1 408 0 is_stmt 1 discriminator 1
 755 0150 0020     		movs	r0, #0
 756 0152 00E0     		b	.L40
 757              	.L51:
 758              		.loc 1 408 0 is_stmt 0
 759 0154 0020     		movs	r0, #0
 760              	.L40:
 409:rt_thread/src/ipc.c **** }
 761              		.loc 1 409 0 is_stmt 1
 762 0156 02B0     		add	sp, sp, #8
 763              	.LCFI6:
 764              		.cfi_def_cfa_offset 24
 765              		@ sp needed
 766 0158 BDE8F081 		pop	{r4, r5, r6, r7, r8, pc}
 767              	.LVL111:
 768              	.L54:
 769              		.align	2
 770              	.L53:
 771 015c 00000000 		.word	.LANCHOR4
 772 0160 00000000 		.word	.LC0
 773 0164 24000000 		.word	.LC2
 774 0168 00000000 		.word	rt_object_trytake_hook
 775 016c 04010000 		.word	.LC7
ARM GAS  /tmp/ccObKSes.s 			page 24


 776 0170 C4000000 		.word	.LC5
 777 0174 9C000000 		.word	.LC4
 778 0178 00000000 		.word	rt_object_take_hook
 779              		.cfi_endproc
 780              	.LFE23:
 782              		.section	.text.rt_sem_trytake,"ax",%progbits
 783              		.align	2
 784              		.global	rt_sem_trytake
 785              		.thumb
 786              		.thumb_func
 788              	rt_sem_trytake:
 789              	.LFB24:
 410:rt_thread/src/ipc.c **** RTM_EXPORT(rt_sem_take);
 411:rt_thread/src/ipc.c **** 
 412:rt_thread/src/ipc.c **** /**
 413:rt_thread/src/ipc.c ****  * This function will try to take a semaphore and immediately return
 414:rt_thread/src/ipc.c ****  *
 415:rt_thread/src/ipc.c ****  * @param sem the semaphore object
 416:rt_thread/src/ipc.c ****  *
 417:rt_thread/src/ipc.c ****  * @return the error code
 418:rt_thread/src/ipc.c ****  */
 419:rt_thread/src/ipc.c **** rt_err_t rt_sem_trytake(rt_sem_t sem)
 420:rt_thread/src/ipc.c **** {
 790              		.loc 1 420 0
 791              		.cfi_startproc
 792              		@ args = 0, pretend = 0, frame = 0
 793              		@ frame_needed = 0, uses_anonymous_args = 0
 794              	.LVL112:
 795 0000 08B5     		push	{r3, lr}
 796              	.LCFI7:
 797              		.cfi_def_cfa_offset 8
 798              		.cfi_offset 3, -8
 799              		.cfi_offset 14, -4
 421:rt_thread/src/ipc.c ****     return rt_sem_take(sem, 0);
 800              		.loc 1 421 0
 801 0002 0021     		movs	r1, #0
 802 0004 FFF7FEFF 		bl	rt_sem_take
 803              	.LVL113:
 422:rt_thread/src/ipc.c **** }
 804              		.loc 1 422 0
 805 0008 08BD     		pop	{r3, pc}
 806              		.cfi_endproc
 807              	.LFE24:
 809 000a 00BF     		.section	.text.rt_sem_release,"ax",%progbits
 810              		.align	2
 811              		.global	rt_sem_release
 812              		.thumb
 813              		.thumb_func
 815              	rt_sem_release:
 816              	.LFB25:
 423:rt_thread/src/ipc.c **** RTM_EXPORT(rt_sem_trytake);
 424:rt_thread/src/ipc.c **** 
 425:rt_thread/src/ipc.c **** /**
 426:rt_thread/src/ipc.c ****  * This function will release a semaphore, if there are threads suspended on
 427:rt_thread/src/ipc.c ****  * semaphore, it will be waked up.
 428:rt_thread/src/ipc.c ****  *
 429:rt_thread/src/ipc.c ****  * @param sem the semaphore object
ARM GAS  /tmp/ccObKSes.s 			page 25


 430:rt_thread/src/ipc.c ****  *
 431:rt_thread/src/ipc.c ****  * @return the error code
 432:rt_thread/src/ipc.c ****  */
 433:rt_thread/src/ipc.c **** rt_err_t rt_sem_release(rt_sem_t sem)
 434:rt_thread/src/ipc.c **** {
 817              		.loc 1 434 0
 818              		.cfi_startproc
 819              		@ args = 0, pretend = 0, frame = 0
 820              		@ frame_needed = 0, uses_anonymous_args = 0
 821              	.LVL114:
 822 0000 38B5     		push	{r3, r4, r5, lr}
 823              	.LCFI8:
 824              		.cfi_def_cfa_offset 16
 825              		.cfi_offset 3, -16
 826              		.cfi_offset 4, -12
 827              		.cfi_offset 5, -8
 828              		.cfi_offset 14, -4
 435:rt_thread/src/ipc.c ****     register rt_base_t temp;
 436:rt_thread/src/ipc.c ****     register rt_bool_t need_schedule;
 437:rt_thread/src/ipc.c **** 
 438:rt_thread/src/ipc.c ****     /* parameter check */
 439:rt_thread/src/ipc.c ****     RT_ASSERT(sem != RT_NULL);
 829              		.loc 1 439 0
 830 0002 0446     		mov	r4, r0
 831 0004 28B9     		cbnz	r0, .L58
 832              		.loc 1 439 0 is_stmt 0 discriminator 1
 833 0006 40F2B712 		movw	r2, #439
 834 000a 1649     		ldr	r1, .L65
 835 000c 1648     		ldr	r0, .L65+4
 836              	.LVL115:
 837 000e FFF7FEFF 		bl	rt_assert_handler
 838              	.LVL116:
 839              	.L58:
 440:rt_thread/src/ipc.c ****     RT_ASSERT(rt_object_get_type(&sem->parent.parent) == RT_Object_Class_Semaphore);
 840              		.loc 1 440 0 is_stmt 1
 841 0012 2046     		mov	r0, r4
 842 0014 FFF7FEFF 		bl	rt_object_get_type
 843              	.LVL117:
 844 0018 0228     		cmp	r0, #2
 845 001a 05D0     		beq	.L59
 846              		.loc 1 440 0 is_stmt 0 discriminator 1
 847 001c 4FF4DC72 		mov	r2, #440
 848 0020 1049     		ldr	r1, .L65
 849 0022 1248     		ldr	r0, .L65+8
 850 0024 FFF7FEFF 		bl	rt_assert_handler
 851              	.LVL118:
 852              	.L59:
 441:rt_thread/src/ipc.c **** 
 442:rt_thread/src/ipc.c ****     RT_OBJECT_HOOK_CALL(rt_object_put_hook, (&(sem->parent.parent)));
 853              		.loc 1 442 0 is_stmt 1
 854 0028 114B     		ldr	r3, .L65+12
 855 002a 1B68     		ldr	r3, [r3]
 856 002c 0BB1     		cbz	r3, .L60
 857              		.loc 1 442 0 is_stmt 0 discriminator 1
 858 002e 2046     		mov	r0, r4
 859 0030 9847     		blx	r3
 860              	.LVL119:
ARM GAS  /tmp/ccObKSes.s 			page 26


 861              	.L60:
 443:rt_thread/src/ipc.c **** 
 444:rt_thread/src/ipc.c ****     need_schedule = RT_FALSE;
 445:rt_thread/src/ipc.c **** 
 446:rt_thread/src/ipc.c ****     /* disable interrupt */
 447:rt_thread/src/ipc.c ****     temp = rt_hw_interrupt_disable();
 862              		.loc 1 447 0 is_stmt 1
 863 0032 FFF7FEFF 		bl	rt_hw_interrupt_disable
 864              	.LVL120:
 865 0036 0546     		mov	r5, r0
 866              	.LVL121:
 448:rt_thread/src/ipc.c **** 
 449:rt_thread/src/ipc.c ****     RT_DEBUG_LOG(RT_DEBUG_IPC, ("thread %s releases sem:%s, which value is: %d\n",
 450:rt_thread/src/ipc.c ****                                 rt_thread_self()->name,
 451:rt_thread/src/ipc.c ****                                 ((struct rt_object *)sem)->name,
 452:rt_thread/src/ipc.c ****                                 sem->value));
 453:rt_thread/src/ipc.c **** 
 454:rt_thread/src/ipc.c ****     if (!rt_list_isempty(&sem->parent.suspend_thread))
 867              		.loc 1 454 0
 868 0038 04F11403 		add	r3, r4, #20
 869              	.LBB155:
 870              	.LBB156:
 871              		.loc 2 100 0
 872 003c 6069     		ldr	r0, [r4, #20]
 873              	.LVL122:
 874              	.LBE156:
 875              	.LBE155:
 876              		.loc 1 454 0
 877 003e 8342     		cmp	r3, r0
 878 0040 04D0     		beq	.L61
 879              	.LVL123:
 880              	.LBB157:
 881              	.LBB158:
 144:rt_thread/src/ipc.c **** 
 882              		.loc 1 144 0
 883 0042 1438     		subs	r0, r0, #20
 884              	.LVL124:
 885 0044 FFF7FEFF 		bl	rt_thread_resume
 886              	.LVL125:
 887              	.LBE158:
 888              	.LBE157:
 455:rt_thread/src/ipc.c ****     {
 456:rt_thread/src/ipc.c ****         /* resume the suspended thread */
 457:rt_thread/src/ipc.c ****         rt_ipc_list_resume(&(sem->parent.suspend_thread));
 458:rt_thread/src/ipc.c ****         need_schedule = RT_TRUE;
 889              		.loc 1 458 0
 890 0048 0124     		movs	r4, #1
 891              	.LVL126:
 892 004a 03E0     		b	.L62
 893              	.LVL127:
 894              	.L61:
 459:rt_thread/src/ipc.c ****     }
 460:rt_thread/src/ipc.c ****     else
 461:rt_thread/src/ipc.c ****         sem->value ++; /* increase value */
 895              		.loc 1 461 0
 896 004c A38B     		ldrh	r3, [r4, #28]
 897 004e 0133     		adds	r3, r3, #1
ARM GAS  /tmp/ccObKSes.s 			page 27


 898 0050 A383     		strh	r3, [r4, #28]	@ movhi
 444:rt_thread/src/ipc.c **** 
 899              		.loc 1 444 0
 900 0052 0024     		movs	r4, #0
 901              	.LVL128:
 902              	.L62:
 462:rt_thread/src/ipc.c **** 
 463:rt_thread/src/ipc.c ****     /* enable interrupt */
 464:rt_thread/src/ipc.c ****     rt_hw_interrupt_enable(temp);
 903              		.loc 1 464 0
 904 0054 2846     		mov	r0, r5
 905 0056 FFF7FEFF 		bl	rt_hw_interrupt_enable
 906              	.LVL129:
 465:rt_thread/src/ipc.c **** 
 466:rt_thread/src/ipc.c ****     /* resume a thread, re-schedule */
 467:rt_thread/src/ipc.c ****     if (need_schedule == RT_TRUE)
 907              		.loc 1 467 0
 908 005a 0CB1     		cbz	r4, .L63
 468:rt_thread/src/ipc.c ****         rt_schedule();
 909              		.loc 1 468 0
 910 005c FFF7FEFF 		bl	rt_schedule
 911              	.LVL130:
 912              	.L63:
 469:rt_thread/src/ipc.c **** 
 470:rt_thread/src/ipc.c ****     return RT_EOK;
 471:rt_thread/src/ipc.c **** }
 913              		.loc 1 471 0
 914 0060 0020     		movs	r0, #0
 915 0062 38BD     		pop	{r3, r4, r5, pc}
 916              	.LVL131:
 917              	.L66:
 918              		.align	2
 919              	.L65:
 920 0064 00000000 		.word	.LANCHOR5
 921 0068 00000000 		.word	.LC0
 922 006c 24000000 		.word	.LC2
 923 0070 00000000 		.word	rt_object_put_hook
 924              		.cfi_endproc
 925              	.LFE25:
 927              		.section	.text.rt_sem_control,"ax",%progbits
 928              		.align	2
 929              		.global	rt_sem_control
 930              		.thumb
 931              		.thumb_func
 933              	rt_sem_control:
 934              	.LFB26:
 472:rt_thread/src/ipc.c **** RTM_EXPORT(rt_sem_release);
 473:rt_thread/src/ipc.c **** 
 474:rt_thread/src/ipc.c **** /**
 475:rt_thread/src/ipc.c ****  * This function can get or set some extra attributions of a semaphore object.
 476:rt_thread/src/ipc.c ****  *
 477:rt_thread/src/ipc.c ****  * @param sem the semaphore object
 478:rt_thread/src/ipc.c ****  * @param cmd the execution command
 479:rt_thread/src/ipc.c ****  * @param arg the execution argument
 480:rt_thread/src/ipc.c ****  *
 481:rt_thread/src/ipc.c ****  * @return the error code
 482:rt_thread/src/ipc.c ****  */
ARM GAS  /tmp/ccObKSes.s 			page 28


 483:rt_thread/src/ipc.c **** rt_err_t rt_sem_control(rt_sem_t sem, int cmd, void *arg)
 484:rt_thread/src/ipc.c **** {
 935              		.loc 1 484 0
 936              		.cfi_startproc
 937              		@ args = 0, pretend = 0, frame = 0
 938              		@ frame_needed = 0, uses_anonymous_args = 0
 939              	.LVL132:
 940 0000 2DE9F041 		push	{r4, r5, r6, r7, r8, lr}
 941              	.LCFI9:
 942              		.cfi_def_cfa_offset 24
 943              		.cfi_offset 4, -24
 944              		.cfi_offset 5, -20
 945              		.cfi_offset 6, -16
 946              		.cfi_offset 7, -12
 947              		.cfi_offset 8, -8
 948              		.cfi_offset 14, -4
 949 0004 0C46     		mov	r4, r1
 950 0006 1746     		mov	r7, r2
 485:rt_thread/src/ipc.c ****     rt_ubase_t level;
 486:rt_thread/src/ipc.c **** 
 487:rt_thread/src/ipc.c ****     /* parameter check */
 488:rt_thread/src/ipc.c ****     RT_ASSERT(sem != RT_NULL);
 951              		.loc 1 488 0
 952 0008 0646     		mov	r6, r0
 953 000a 28B9     		cbnz	r0, .L68
 954              		.loc 1 488 0 is_stmt 0 discriminator 1
 955 000c 4FF4F472 		mov	r2, #488
 956              	.LVL133:
 957 0010 1949     		ldr	r1, .L75
 958              	.LVL134:
 959 0012 1A48     		ldr	r0, .L75+4
 960              	.LVL135:
 961 0014 FFF7FEFF 		bl	rt_assert_handler
 962              	.LVL136:
 963              	.L68:
 489:rt_thread/src/ipc.c ****     RT_ASSERT(rt_object_get_type(&sem->parent.parent) == RT_Object_Class_Semaphore);
 964              		.loc 1 489 0 is_stmt 1
 965 0018 3046     		mov	r0, r6
 966 001a FFF7FEFF 		bl	rt_object_get_type
 967              	.LVL137:
 968 001e 0228     		cmp	r0, #2
 969 0020 05D0     		beq	.L69
 970              		.loc 1 489 0 is_stmt 0 discriminator 1
 971 0022 40F2E912 		movw	r2, #489
 972 0026 1449     		ldr	r1, .L75
 973 0028 1548     		ldr	r0, .L75+8
 974 002a FFF7FEFF 		bl	rt_assert_handler
 975              	.LVL138:
 976              	.L69:
 490:rt_thread/src/ipc.c **** 
 491:rt_thread/src/ipc.c ****     if (cmd == RT_IPC_CMD_RESET)
 977              		.loc 1 491 0 is_stmt 1
 978 002e 012C     		cmp	r4, #1
 979 0030 1ED1     		bne	.L73
 980              	.LVL139:
 981              	.LBB164:
 492:rt_thread/src/ipc.c ****     {
ARM GAS  /tmp/ccObKSes.s 			page 29


 493:rt_thread/src/ipc.c ****         rt_ubase_t value;
 494:rt_thread/src/ipc.c **** 
 495:rt_thread/src/ipc.c ****         /* get value */
 496:rt_thread/src/ipc.c ****         value = (rt_ubase_t)arg;
 497:rt_thread/src/ipc.c ****         /* disable interrupt */
 498:rt_thread/src/ipc.c ****         level = rt_hw_interrupt_disable();
 982              		.loc 1 498 0
 983 0032 FFF7FEFF 		bl	rt_hw_interrupt_disable
 984              	.LVL140:
 985 0036 8046     		mov	r8, r0
 986              	.LVL141:
 499:rt_thread/src/ipc.c **** 
 500:rt_thread/src/ipc.c ****         /* resume all waiting thread */
 501:rt_thread/src/ipc.c ****         rt_ipc_list_resume_all(&sem->parent.suspend_thread);
 987              		.loc 1 501 0
 988 0038 06F11404 		add	r4, r6, #20
 989              	.LVL142:
 990 003c 0CE0     		b	.L71
 991              	.LVL143:
 992              	.L72:
 993              	.LBB165:
 994              	.LBB166:
 166:rt_thread/src/ipc.c **** 
 995              		.loc 1 166 0
 996 003e FFF7FEFF 		bl	rt_hw_interrupt_disable
 997              	.LVL144:
 998 0042 0546     		mov	r5, r0
 999              	.LVL145:
 169:rt_thread/src/ipc.c ****         /* set error code to RT_ERROR */
 1000              		.loc 1 169 0
 1001 0044 2068     		ldr	r0, [r4]
 1002              	.LVL146:
 171:rt_thread/src/ipc.c **** 
 1003              		.loc 1 171 0
 1004 0046 4FF0FF33 		mov	r3, #-1
 1005 004a C361     		str	r3, [r0, #28]
 178:rt_thread/src/ipc.c **** 
 1006              		.loc 1 178 0
 1007 004c 1438     		subs	r0, r0, #20
 1008              	.LVL147:
 1009 004e FFF7FEFF 		bl	rt_thread_resume
 1010              	.LVL148:
 181:rt_thread/src/ipc.c ****     }
 1011              		.loc 1 181 0
 1012 0052 2846     		mov	r0, r5
 1013 0054 FFF7FEFF 		bl	rt_hw_interrupt_enable
 1014              	.LVL149:
 1015              	.L71:
 1016              	.LBB167:
 1017              	.LBB168:
 1018              		.loc 2 100 0
 1019 0058 2368     		ldr	r3, [r4]
 1020              	.LVL150:
 1021              	.LBE168:
 1022              	.LBE167:
 163:rt_thread/src/ipc.c ****     {
 1023              		.loc 1 163 0
ARM GAS  /tmp/ccObKSes.s 			page 30


 1024 005a 9C42     		cmp	r4, r3
 1025 005c EFD1     		bne	.L72
 1026              	.LVL151:
 1027              	.LBE166:
 1028              	.LBE165:
 502:rt_thread/src/ipc.c **** 
 503:rt_thread/src/ipc.c ****         /* set new value */
 504:rt_thread/src/ipc.c ****         sem->value = (rt_uint16_t)value;
 1029              		.loc 1 504 0
 1030 005e B783     		strh	r7, [r6, #28]	@ movhi
 505:rt_thread/src/ipc.c **** 
 506:rt_thread/src/ipc.c ****         /* enable interrupt */
 507:rt_thread/src/ipc.c ****         rt_hw_interrupt_enable(level);
 1031              		.loc 1 507 0
 1032 0060 4046     		mov	r0, r8
 1033 0062 FFF7FEFF 		bl	rt_hw_interrupt_enable
 1034              	.LVL152:
 508:rt_thread/src/ipc.c **** 
 509:rt_thread/src/ipc.c ****         rt_schedule();
 1035              		.loc 1 509 0
 1036 0066 FFF7FEFF 		bl	rt_schedule
 1037              	.LVL153:
 510:rt_thread/src/ipc.c **** 
 511:rt_thread/src/ipc.c ****         return RT_EOK;
 1038              		.loc 1 511 0
 1039 006a 0020     		movs	r0, #0
 1040 006c BDE8F081 		pop	{r4, r5, r6, r7, r8, pc}
 1041              	.LVL154:
 1042              	.L73:
 1043              	.LBE164:
 512:rt_thread/src/ipc.c ****     }
 513:rt_thread/src/ipc.c **** 
 514:rt_thread/src/ipc.c ****     return -RT_ERROR;
 1044              		.loc 1 514 0
 1045 0070 4FF0FF30 		mov	r0, #-1
 515:rt_thread/src/ipc.c **** }
 1046              		.loc 1 515 0
 1047 0074 BDE8F081 		pop	{r4, r5, r6, r7, r8, pc}
 1048              	.LVL155:
 1049              	.L76:
 1050              		.align	2
 1051              	.L75:
 1052 0078 00000000 		.word	.LANCHOR6
 1053 007c 00000000 		.word	.LC0
 1054 0080 24000000 		.word	.LC2
 1055              		.cfi_endproc
 1056              	.LFE26:
 1058              		.section	.text.rt_mutex_init,"ax",%progbits
 1059              		.align	2
 1060              		.global	rt_mutex_init
 1061              		.thumb
 1062              		.thumb_func
 1064              	rt_mutex_init:
 1065              	.LFB27:
 516:rt_thread/src/ipc.c **** RTM_EXPORT(rt_sem_control);
 517:rt_thread/src/ipc.c **** #endif /* end of RT_USING_SEMAPHORE */
 518:rt_thread/src/ipc.c **** 
ARM GAS  /tmp/ccObKSes.s 			page 31


 519:rt_thread/src/ipc.c **** #ifdef RT_USING_MUTEX
 520:rt_thread/src/ipc.c **** /**
 521:rt_thread/src/ipc.c ****  * This function will initialize a mutex and put it under control of resource
 522:rt_thread/src/ipc.c ****  * management.
 523:rt_thread/src/ipc.c ****  *
 524:rt_thread/src/ipc.c ****  * @param mutex the mutex object
 525:rt_thread/src/ipc.c ****  * @param name the name of mutex
 526:rt_thread/src/ipc.c ****  * @param flag the flag of mutex
 527:rt_thread/src/ipc.c ****  *
 528:rt_thread/src/ipc.c ****  * @return the operation status, RT_EOK on successful
 529:rt_thread/src/ipc.c ****  */
 530:rt_thread/src/ipc.c **** rt_err_t rt_mutex_init(rt_mutex_t mutex, const char *name, rt_uint8_t flag)
 531:rt_thread/src/ipc.c **** {
 1066              		.loc 1 531 0
 1067              		.cfi_startproc
 1068              		@ args = 0, pretend = 0, frame = 0
 1069              		@ frame_needed = 0, uses_anonymous_args = 0
 1070              	.LVL156:
 1071 0000 70B5     		push	{r4, r5, r6, lr}
 1072              	.LCFI10:
 1073              		.cfi_def_cfa_offset 16
 1074              		.cfi_offset 4, -16
 1075              		.cfi_offset 5, -12
 1076              		.cfi_offset 6, -8
 1077              		.cfi_offset 14, -4
 1078 0002 0E46     		mov	r6, r1
 1079 0004 1546     		mov	r5, r2
 532:rt_thread/src/ipc.c ****     /* parameter check */
 533:rt_thread/src/ipc.c ****     RT_ASSERT(mutex != RT_NULL);
 1080              		.loc 1 533 0
 1081 0006 0446     		mov	r4, r0
 1082 0008 28B9     		cbnz	r0, .L78
 1083              		.loc 1 533 0 is_stmt 0 discriminator 1
 1084 000a 40F21522 		movw	r2, #533
 1085              	.LVL157:
 1086 000e 0B49     		ldr	r1, .L80
 1087              	.LVL158:
 1088 0010 0B48     		ldr	r0, .L80+4
 1089              	.LVL159:
 1090 0012 FFF7FEFF 		bl	rt_assert_handler
 1091              	.LVL160:
 1092              	.L78:
 534:rt_thread/src/ipc.c **** 
 535:rt_thread/src/ipc.c ****     /* initialize object */
 536:rt_thread/src/ipc.c ****     rt_object_init(&(mutex->parent.parent), RT_Object_Class_Mutex, name);
 1093              		.loc 1 536 0 is_stmt 1
 1094 0016 3246     		mov	r2, r6
 1095 0018 0321     		movs	r1, #3
 1096 001a 2046     		mov	r0, r4
 1097 001c FFF7FEFF 		bl	rt_object_init
 1098              	.LVL161:
 1099              	.LBB169:
 1100              	.LBB170:
  64:rt_thread/src/ipc.c **** 
 1101              		.loc 1 64 0
 1102 0020 04F11403 		add	r3, r4, #20
 1103              	.LVL162:
ARM GAS  /tmp/ccObKSes.s 			page 32


 1104              	.LBB171:
 1105              	.LBB172:
  49:rt_thread/include/rtservice.h **** }
 1106              		.loc 2 49 0
 1107 0024 A361     		str	r3, [r4, #24]
 1108 0026 6361     		str	r3, [r4, #20]
 1109              	.LVL163:
 1110              	.LBE172:
 1111              	.LBE171:
 1112              	.LBE170:
 1113              	.LBE169:
 537:rt_thread/src/ipc.c **** 
 538:rt_thread/src/ipc.c ****     /* initialize ipc object */
 539:rt_thread/src/ipc.c ****     rt_ipc_object_init(&(mutex->parent));
 540:rt_thread/src/ipc.c **** 
 541:rt_thread/src/ipc.c ****     mutex->value = 1;
 1114              		.loc 1 541 0
 1115 0028 0123     		movs	r3, #1
 1116 002a A383     		strh	r3, [r4, #28]	@ movhi
 542:rt_thread/src/ipc.c ****     mutex->owner = RT_NULL;
 1117              		.loc 1 542 0
 1118 002c 0020     		movs	r0, #0
 1119 002e 2062     		str	r0, [r4, #32]
 543:rt_thread/src/ipc.c ****     mutex->original_priority = 0xFF;
 1120              		.loc 1 543 0
 1121 0030 FF23     		movs	r3, #255
 1122 0032 A377     		strb	r3, [r4, #30]
 544:rt_thread/src/ipc.c ****     mutex->hold  = 0;
 1123              		.loc 1 544 0
 1124 0034 E077     		strb	r0, [r4, #31]
 545:rt_thread/src/ipc.c **** 
 546:rt_thread/src/ipc.c ****     /* set flag */
 547:rt_thread/src/ipc.c ****     mutex->parent.parent.flag = flag;
 1125              		.loc 1 547 0
 1126 0036 6572     		strb	r5, [r4, #9]
 548:rt_thread/src/ipc.c **** 
 549:rt_thread/src/ipc.c ****     return RT_EOK;
 550:rt_thread/src/ipc.c **** }
 1127              		.loc 1 550 0
 1128 0038 70BD     		pop	{r4, r5, r6, pc}
 1129              	.LVL164:
 1130              	.L81:
 1131 003a 00BF     		.align	2
 1132              	.L80:
 1133 003c 00000000 		.word	.LANCHOR7
 1134 0040 3C010000 		.word	.LC8
 1135              		.cfi_endproc
 1136              	.LFE27:
 1138              		.section	.text.rt_mutex_detach,"ax",%progbits
 1139              		.align	2
 1140              		.global	rt_mutex_detach
 1141              		.thumb
 1142              		.thumb_func
 1144              	rt_mutex_detach:
 1145              	.LFB28:
 551:rt_thread/src/ipc.c **** RTM_EXPORT(rt_mutex_init);
 552:rt_thread/src/ipc.c **** 
ARM GAS  /tmp/ccObKSes.s 			page 33


 553:rt_thread/src/ipc.c **** /**
 554:rt_thread/src/ipc.c ****  * This function will detach a mutex from resource management
 555:rt_thread/src/ipc.c ****  *
 556:rt_thread/src/ipc.c ****  * @param mutex the mutex object
 557:rt_thread/src/ipc.c ****  *
 558:rt_thread/src/ipc.c ****  * @return the operation status, RT_EOK on successful
 559:rt_thread/src/ipc.c ****  *
 560:rt_thread/src/ipc.c ****  * @see rt_mutex_delete
 561:rt_thread/src/ipc.c ****  */
 562:rt_thread/src/ipc.c **** rt_err_t rt_mutex_detach(rt_mutex_t mutex)
 563:rt_thread/src/ipc.c **** {
 1146              		.loc 1 563 0
 1147              		.cfi_startproc
 1148              		@ args = 0, pretend = 0, frame = 0
 1149              		@ frame_needed = 0, uses_anonymous_args = 0
 1150              	.LVL165:
 1151 0000 70B5     		push	{r4, r5, r6, lr}
 1152              	.LCFI11:
 1153              		.cfi_def_cfa_offset 16
 1154              		.cfi_offset 4, -16
 1155              		.cfi_offset 5, -12
 1156              		.cfi_offset 6, -8
 1157              		.cfi_offset 14, -4
 564:rt_thread/src/ipc.c ****     /* parameter check */
 565:rt_thread/src/ipc.c ****     RT_ASSERT(mutex != RT_NULL);
 1158              		.loc 1 565 0
 1159 0002 0646     		mov	r6, r0
 1160 0004 28B9     		cbnz	r0, .L83
 1161              		.loc 1 565 0 is_stmt 0 discriminator 1
 1162 0006 40F23522 		movw	r2, #565
 1163 000a 1849     		ldr	r1, .L89
 1164 000c 1848     		ldr	r0, .L89+4
 1165              	.LVL166:
 1166 000e FFF7FEFF 		bl	rt_assert_handler
 1167              	.LVL167:
 1168              	.L83:
 566:rt_thread/src/ipc.c ****     RT_ASSERT(rt_object_get_type(&mutex->parent.parent) == RT_Object_Class_Mutex);
 1169              		.loc 1 566 0 is_stmt 1
 1170 0012 3046     		mov	r0, r6
 1171 0014 FFF7FEFF 		bl	rt_object_get_type
 1172              	.LVL168:
 1173 0018 0328     		cmp	r0, #3
 1174 001a 05D0     		beq	.L84
 1175              		.loc 1 566 0 is_stmt 0 discriminator 1
 1176 001c 40F23622 		movw	r2, #566
 1177 0020 1249     		ldr	r1, .L89
 1178 0022 1448     		ldr	r0, .L89+8
 1179 0024 FFF7FEFF 		bl	rt_assert_handler
 1180              	.LVL169:
 1181              	.L84:
 567:rt_thread/src/ipc.c ****     RT_ASSERT(rt_object_is_systemobject(&mutex->parent.parent));
 1182              		.loc 1 567 0 is_stmt 1
 1183 0028 3046     		mov	r0, r6
 1184 002a FFF7FEFF 		bl	rt_object_is_systemobject
 1185              	.LVL170:
 1186 002e 28B9     		cbnz	r0, .L85
 1187              		.loc 1 567 0 is_stmt 0 discriminator 1
ARM GAS  /tmp/ccObKSes.s 			page 34


 1188 0030 40F23722 		movw	r2, #567
 1189 0034 0D49     		ldr	r1, .L89
 1190 0036 1048     		ldr	r0, .L89+12
 1191 0038 FFF7FEFF 		bl	rt_assert_handler
 1192              	.LVL171:
 1193              	.L85:
 568:rt_thread/src/ipc.c **** 
 569:rt_thread/src/ipc.c ****     /* wakeup all suspended threads */
 570:rt_thread/src/ipc.c ****     rt_ipc_list_resume_all(&(mutex->parent.suspend_thread));
 1194              		.loc 1 570 0 is_stmt 1
 1195 003c 06F11404 		add	r4, r6, #20
 1196              	.LVL172:
 1197 0040 0CE0     		b	.L86
 1198              	.L87:
 1199              	.LBB177:
 1200              	.LBB178:
 166:rt_thread/src/ipc.c **** 
 1201              		.loc 1 166 0
 1202 0042 FFF7FEFF 		bl	rt_hw_interrupt_disable
 1203              	.LVL173:
 1204 0046 0546     		mov	r5, r0
 1205              	.LVL174:
 169:rt_thread/src/ipc.c ****         /* set error code to RT_ERROR */
 1206              		.loc 1 169 0
 1207 0048 2068     		ldr	r0, [r4]
 1208              	.LVL175:
 171:rt_thread/src/ipc.c **** 
 1209              		.loc 1 171 0
 1210 004a 4FF0FF33 		mov	r3, #-1
 1211 004e C361     		str	r3, [r0, #28]
 178:rt_thread/src/ipc.c **** 
 1212              		.loc 1 178 0
 1213 0050 1438     		subs	r0, r0, #20
 1214              	.LVL176:
 1215 0052 FFF7FEFF 		bl	rt_thread_resume
 1216              	.LVL177:
 181:rt_thread/src/ipc.c ****     }
 1217              		.loc 1 181 0
 1218 0056 2846     		mov	r0, r5
 1219 0058 FFF7FEFF 		bl	rt_hw_interrupt_enable
 1220              	.LVL178:
 1221              	.L86:
 1222              	.LBB179:
 1223              	.LBB180:
 1224              		.loc 2 100 0
 1225 005c 2368     		ldr	r3, [r4]
 1226              	.LVL179:
 1227              	.LBE180:
 1228              	.LBE179:
 163:rt_thread/src/ipc.c ****     {
 1229              		.loc 1 163 0
 1230 005e 9C42     		cmp	r4, r3
 1231 0060 EFD1     		bne	.L87
 1232              	.LVL180:
 1233              	.LBE178:
 1234              	.LBE177:
 571:rt_thread/src/ipc.c **** 
ARM GAS  /tmp/ccObKSes.s 			page 35


 572:rt_thread/src/ipc.c ****     /* detach semaphore object */
 573:rt_thread/src/ipc.c ****     rt_object_detach(&(mutex->parent.parent));
 1235              		.loc 1 573 0
 1236 0062 3046     		mov	r0, r6
 1237 0064 FFF7FEFF 		bl	rt_object_detach
 1238              	.LVL181:
 574:rt_thread/src/ipc.c **** 
 575:rt_thread/src/ipc.c ****     return RT_EOK;
 576:rt_thread/src/ipc.c **** }
 1239              		.loc 1 576 0
 1240 0068 0020     		movs	r0, #0
 1241 006a 70BD     		pop	{r4, r5, r6, pc}
 1242              	.LVL182:
 1243              	.L90:
 1244              		.align	2
 1245              	.L89:
 1246 006c 00000000 		.word	.LANCHOR8
 1247 0070 3C010000 		.word	.LC8
 1248 0074 50010000 		.word	.LC9
 1249 0078 94010000 		.word	.LC10
 1250              		.cfi_endproc
 1251              	.LFE28:
 1253              		.section	.text.rt_mutex_create,"ax",%progbits
 1254              		.align	2
 1255              		.global	rt_mutex_create
 1256              		.thumb
 1257              		.thumb_func
 1259              	rt_mutex_create:
 1260              	.LFB29:
 577:rt_thread/src/ipc.c **** RTM_EXPORT(rt_mutex_detach);
 578:rt_thread/src/ipc.c **** 
 579:rt_thread/src/ipc.c **** #ifdef RT_USING_HEAP
 580:rt_thread/src/ipc.c **** /**
 581:rt_thread/src/ipc.c ****  * This function will create a mutex from system resource
 582:rt_thread/src/ipc.c ****  *
 583:rt_thread/src/ipc.c ****  * @param name the name of mutex
 584:rt_thread/src/ipc.c ****  * @param flag the flag of mutex
 585:rt_thread/src/ipc.c ****  *
 586:rt_thread/src/ipc.c ****  * @return the created mutex, RT_NULL on error happen
 587:rt_thread/src/ipc.c ****  *
 588:rt_thread/src/ipc.c ****  * @see rt_mutex_init
 589:rt_thread/src/ipc.c ****  */
 590:rt_thread/src/ipc.c **** rt_mutex_t rt_mutex_create(const char *name, rt_uint8_t flag)
 591:rt_thread/src/ipc.c **** {
 1261              		.loc 1 591 0
 1262              		.cfi_startproc
 1263              		@ args = 0, pretend = 0, frame = 0
 1264              		@ frame_needed = 0, uses_anonymous_args = 0
 1265              	.LVL183:
 1266 0000 F8B5     		push	{r3, r4, r5, r6, r7, lr}
 1267              	.LCFI12:
 1268              		.cfi_def_cfa_offset 24
 1269              		.cfi_offset 3, -24
 1270              		.cfi_offset 4, -20
 1271              		.cfi_offset 5, -16
 1272              		.cfi_offset 6, -12
 1273              		.cfi_offset 7, -8
ARM GAS  /tmp/ccObKSes.s 			page 36


 1274              		.cfi_offset 14, -4
 1275 0002 0446     		mov	r4, r0
 1276 0004 0E46     		mov	r6, r1
 1277              	.LBB181:
 592:rt_thread/src/ipc.c ****     struct rt_mutex *mutex;
 593:rt_thread/src/ipc.c **** 
 594:rt_thread/src/ipc.c ****     RT_DEBUG_NOT_IN_INTERRUPT;
 1278              		.loc 1 594 0
 1279 0006 FFF7FEFF 		bl	rt_hw_interrupt_disable
 1280              	.LVL184:
 1281 000a 0546     		mov	r5, r0
 1282              	.LVL185:
 1283 000c FFF7FEFF 		bl	rt_interrupt_get_nest
 1284              	.LVL186:
 1285 0010 50B1     		cbz	r0, .L92
 1286              		.loc 1 594 0 is_stmt 0 discriminator 1
 1287 0012 114F     		ldr	r7, .L95
 1288 0014 3946     		mov	r1, r7
 1289 0016 1148     		ldr	r0, .L95+4
 1290 0018 FFF7FEFF 		bl	rt_kprintf
 1291              	.LVL187:
 1292 001c 40F25222 		movw	r2, #594
 1293 0020 3946     		mov	r1, r7
 1294 0022 0F48     		ldr	r0, .L95+8
 1295 0024 FFF7FEFF 		bl	rt_assert_handler
 1296              	.LVL188:
 1297              	.L92:
 1298              		.loc 1 594 0 discriminator 5
 1299 0028 2846     		mov	r0, r5
 1300 002a FFF7FEFF 		bl	rt_hw_interrupt_enable
 1301              	.LVL189:
 1302              	.LBE181:
 595:rt_thread/src/ipc.c **** 
 596:rt_thread/src/ipc.c ****     /* allocate object */
 597:rt_thread/src/ipc.c ****     mutex = (rt_mutex_t)rt_object_allocate(RT_Object_Class_Mutex, name);
 1303              		.loc 1 597 0 is_stmt 1 discriminator 5
 1304 002e 2146     		mov	r1, r4
 1305 0030 0320     		movs	r0, #3
 1306 0032 FFF7FEFF 		bl	rt_object_allocate
 1307              	.LVL190:
 598:rt_thread/src/ipc.c ****     if (mutex == RT_NULL)
 1308              		.loc 1 598 0 discriminator 5
 1309 0036 0346     		mov	r3, r0
 1310 0038 58B1     		cbz	r0, .L93
 1311              	.LVL191:
 1312              	.LBB182:
 1313              	.LBB183:
  64:rt_thread/src/ipc.c **** 
 1314              		.loc 1 64 0
 1315 003a 00F11402 		add	r2, r0, #20
 1316              	.LVL192:
 1317              	.LBB184:
 1318              	.LBB185:
  49:rt_thread/include/rtservice.h **** }
 1319              		.loc 2 49 0
 1320 003e 8261     		str	r2, [r0, #24]
 1321 0040 4261     		str	r2, [r0, #20]
ARM GAS  /tmp/ccObKSes.s 			page 37


 1322              	.LVL193:
 1323              	.LBE185:
 1324              	.LBE184:
 1325              	.LBE183:
 1326              	.LBE182:
 599:rt_thread/src/ipc.c ****         return mutex;
 600:rt_thread/src/ipc.c **** 
 601:rt_thread/src/ipc.c ****     /* initialize ipc object */
 602:rt_thread/src/ipc.c ****     rt_ipc_object_init(&(mutex->parent));
 603:rt_thread/src/ipc.c **** 
 604:rt_thread/src/ipc.c ****     mutex->value              = 1;
 1327              		.loc 1 604 0
 1328 0042 0122     		movs	r2, #1
 1329 0044 8283     		strh	r2, [r0, #28]	@ movhi
 605:rt_thread/src/ipc.c ****     mutex->owner              = RT_NULL;
 1330              		.loc 1 605 0
 1331 0046 0022     		movs	r2, #0
 1332 0048 0262     		str	r2, [r0, #32]
 606:rt_thread/src/ipc.c ****     mutex->original_priority  = 0xFF;
 1333              		.loc 1 606 0
 1334 004a FF21     		movs	r1, #255
 1335 004c 8177     		strb	r1, [r0, #30]
 607:rt_thread/src/ipc.c ****     mutex->hold               = 0;
 1336              		.loc 1 607 0
 1337 004e C277     		strb	r2, [r0, #31]
 608:rt_thread/src/ipc.c **** 
 609:rt_thread/src/ipc.c ****     /* set flag */
 610:rt_thread/src/ipc.c ****     mutex->parent.parent.flag = flag;
 1338              		.loc 1 610 0
 1339 0050 4672     		strb	r6, [r0, #9]
 1340              	.L93:
 611:rt_thread/src/ipc.c **** 
 612:rt_thread/src/ipc.c ****     return mutex;
 613:rt_thread/src/ipc.c **** }
 1341              		.loc 1 613 0
 1342 0052 1846     		mov	r0, r3
 1343              	.LVL194:
 1344 0054 F8BD     		pop	{r3, r4, r5, r6, r7, pc}
 1345              	.LVL195:
 1346              	.L96:
 1347 0056 00BF     		.align	2
 1348              	.L95:
 1349 0058 00000000 		.word	.LANCHOR9
 1350 005c 9C000000 		.word	.LC4
 1351 0060 C4000000 		.word	.LC5
 1352              		.cfi_endproc
 1353              	.LFE29:
 1355              		.section	.text.rt_mutex_delete,"ax",%progbits
 1356              		.align	2
 1357              		.global	rt_mutex_delete
 1358              		.thumb
 1359              		.thumb_func
 1361              	rt_mutex_delete:
 1362              	.LFB30:
 614:rt_thread/src/ipc.c **** RTM_EXPORT(rt_mutex_create);
 615:rt_thread/src/ipc.c **** 
 616:rt_thread/src/ipc.c **** /**
ARM GAS  /tmp/ccObKSes.s 			page 38


 617:rt_thread/src/ipc.c ****  * This function will delete a mutex object and release the memory
 618:rt_thread/src/ipc.c ****  *
 619:rt_thread/src/ipc.c ****  * @param mutex the mutex object
 620:rt_thread/src/ipc.c ****  *
 621:rt_thread/src/ipc.c ****  * @return the error code
 622:rt_thread/src/ipc.c ****  *
 623:rt_thread/src/ipc.c ****  * @see rt_mutex_detach
 624:rt_thread/src/ipc.c ****  */
 625:rt_thread/src/ipc.c **** rt_err_t rt_mutex_delete(rt_mutex_t mutex)
 626:rt_thread/src/ipc.c **** {
 1363              		.loc 1 626 0
 1364              		.cfi_startproc
 1365              		@ args = 0, pretend = 0, frame = 0
 1366              		@ frame_needed = 0, uses_anonymous_args = 0
 1367              	.LVL196:
 1368 0000 70B5     		push	{r4, r5, r6, lr}
 1369              	.LCFI13:
 1370              		.cfi_def_cfa_offset 16
 1371              		.cfi_offset 4, -16
 1372              		.cfi_offset 5, -12
 1373              		.cfi_offset 6, -8
 1374              		.cfi_offset 14, -4
 1375 0002 0646     		mov	r6, r0
 1376              	.LBB191:
 627:rt_thread/src/ipc.c ****     RT_DEBUG_NOT_IN_INTERRUPT;
 1377              		.loc 1 627 0
 1378 0004 FFF7FEFF 		bl	rt_hw_interrupt_disable
 1379              	.LVL197:
 1380 0008 0446     		mov	r4, r0
 1381              	.LVL198:
 1382 000a FFF7FEFF 		bl	rt_interrupt_get_nest
 1383              	.LVL199:
 1384 000e 50B1     		cbz	r0, .L98
 1385              		.loc 1 627 0 is_stmt 0 discriminator 1
 1386 0010 204D     		ldr	r5, .L105
 1387 0012 2946     		mov	r1, r5
 1388 0014 2048     		ldr	r0, .L105+4
 1389 0016 FFF7FEFF 		bl	rt_kprintf
 1390              	.LVL200:
 1391 001a 40F27322 		movw	r2, #627
 1392 001e 2946     		mov	r1, r5
 1393 0020 1E48     		ldr	r0, .L105+8
 1394 0022 FFF7FEFF 		bl	rt_assert_handler
 1395              	.LVL201:
 1396              	.L98:
 1397              		.loc 1 627 0 discriminator 5
 1398 0026 2046     		mov	r0, r4
 1399 0028 FFF7FEFF 		bl	rt_hw_interrupt_enable
 1400              	.LVL202:
 1401              	.LBE191:
 628:rt_thread/src/ipc.c **** 
 629:rt_thread/src/ipc.c ****     /* parameter check */
 630:rt_thread/src/ipc.c ****     RT_ASSERT(mutex != RT_NULL);
 1402              		.loc 1 630 0 is_stmt 1 discriminator 5
 1403 002c 2EB9     		cbnz	r6, .L99
 1404              		.loc 1 630 0 is_stmt 0 discriminator 1
 1405 002e 40F27622 		movw	r2, #630
ARM GAS  /tmp/ccObKSes.s 			page 39


 1406 0032 1849     		ldr	r1, .L105
 1407 0034 1A48     		ldr	r0, .L105+12
 1408 0036 FFF7FEFF 		bl	rt_assert_handler
 1409              	.LVL203:
 1410              	.L99:
 631:rt_thread/src/ipc.c ****     RT_ASSERT(rt_object_get_type(&mutex->parent.parent) == RT_Object_Class_Mutex);
 1411              		.loc 1 631 0 is_stmt 1
 1412 003a 3046     		mov	r0, r6
 1413 003c FFF7FEFF 		bl	rt_object_get_type
 1414              	.LVL204:
 1415 0040 0328     		cmp	r0, #3
 1416 0042 05D0     		beq	.L100
 1417              		.loc 1 631 0 is_stmt 0 discriminator 1
 1418 0044 40F27722 		movw	r2, #631
 1419 0048 1249     		ldr	r1, .L105
 1420 004a 1648     		ldr	r0, .L105+16
 1421 004c FFF7FEFF 		bl	rt_assert_handler
 1422              	.LVL205:
 1423              	.L100:
 632:rt_thread/src/ipc.c ****     RT_ASSERT(rt_object_is_systemobject(&mutex->parent.parent) == RT_FALSE);
 1424              		.loc 1 632 0 is_stmt 1
 1425 0050 3046     		mov	r0, r6
 1426 0052 FFF7FEFF 		bl	rt_object_is_systemobject
 1427              	.LVL206:
 1428 0056 28B1     		cbz	r0, .L101
 1429              		.loc 1 632 0 is_stmt 0 discriminator 1
 1430 0058 4FF41E72 		mov	r2, #632
 1431 005c 0D49     		ldr	r1, .L105
 1432 005e 1248     		ldr	r0, .L105+20
 1433 0060 FFF7FEFF 		bl	rt_assert_handler
 1434              	.LVL207:
 1435              	.L101:
 633:rt_thread/src/ipc.c **** 
 634:rt_thread/src/ipc.c ****     /* wakeup all suspended threads */
 635:rt_thread/src/ipc.c ****     rt_ipc_list_resume_all(&(mutex->parent.suspend_thread));
 1436              		.loc 1 635 0 is_stmt 1
 1437 0064 06F11404 		add	r4, r6, #20
 1438              	.LVL208:
 1439 0068 0CE0     		b	.L102
 1440              	.L103:
 1441              	.LBB192:
 1442              	.LBB193:
 166:rt_thread/src/ipc.c **** 
 1443              		.loc 1 166 0
 1444 006a FFF7FEFF 		bl	rt_hw_interrupt_disable
 1445              	.LVL209:
 1446 006e 0546     		mov	r5, r0
 1447              	.LVL210:
 169:rt_thread/src/ipc.c ****         /* set error code to RT_ERROR */
 1448              		.loc 1 169 0
 1449 0070 2068     		ldr	r0, [r4]
 1450              	.LVL211:
 171:rt_thread/src/ipc.c **** 
 1451              		.loc 1 171 0
 1452 0072 4FF0FF33 		mov	r3, #-1
 1453 0076 C361     		str	r3, [r0, #28]
 178:rt_thread/src/ipc.c **** 
ARM GAS  /tmp/ccObKSes.s 			page 40


 1454              		.loc 1 178 0
 1455 0078 1438     		subs	r0, r0, #20
 1456              	.LVL212:
 1457 007a FFF7FEFF 		bl	rt_thread_resume
 1458              	.LVL213:
 181:rt_thread/src/ipc.c ****     }
 1459              		.loc 1 181 0
 1460 007e 2846     		mov	r0, r5
 1461 0080 FFF7FEFF 		bl	rt_hw_interrupt_enable
 1462              	.LVL214:
 1463              	.L102:
 1464              	.LBB194:
 1465              	.LBB195:
 1466              		.loc 2 100 0
 1467 0084 2368     		ldr	r3, [r4]
 1468              	.LVL215:
 1469              	.LBE195:
 1470              	.LBE194:
 163:rt_thread/src/ipc.c ****     {
 1471              		.loc 1 163 0
 1472 0086 9C42     		cmp	r4, r3
 1473 0088 EFD1     		bne	.L103
 1474              	.LVL216:
 1475              	.LBE193:
 1476              	.LBE192:
 636:rt_thread/src/ipc.c **** 
 637:rt_thread/src/ipc.c ****     /* delete mutex object */
 638:rt_thread/src/ipc.c ****     rt_object_delete(&(mutex->parent.parent));
 1477              		.loc 1 638 0
 1478 008a 3046     		mov	r0, r6
 1479 008c FFF7FEFF 		bl	rt_object_delete
 1480              	.LVL217:
 639:rt_thread/src/ipc.c **** 
 640:rt_thread/src/ipc.c ****     return RT_EOK;
 641:rt_thread/src/ipc.c **** }
 1481              		.loc 1 641 0
 1482 0090 0020     		movs	r0, #0
 1483 0092 70BD     		pop	{r4, r5, r6, pc}
 1484              	.LVL218:
 1485              	.L106:
 1486              		.align	2
 1487              	.L105:
 1488 0094 00000000 		.word	.LANCHOR10
 1489 0098 9C000000 		.word	.LC4
 1490 009c C4000000 		.word	.LC5
 1491 00a0 3C010000 		.word	.LC8
 1492 00a4 50010000 		.word	.LC9
 1493 00a8 C8010000 		.word	.LC11
 1494              		.cfi_endproc
 1495              	.LFE30:
 1497              		.section	.text.rt_mutex_take,"ax",%progbits
 1498              		.align	2
 1499              		.global	rt_mutex_take
 1500              		.thumb
 1501              		.thumb_func
 1503              	rt_mutex_take:
 1504              	.LFB31:
ARM GAS  /tmp/ccObKSes.s 			page 41


 642:rt_thread/src/ipc.c **** RTM_EXPORT(rt_mutex_delete);
 643:rt_thread/src/ipc.c **** #endif
 644:rt_thread/src/ipc.c **** 
 645:rt_thread/src/ipc.c **** /**
 646:rt_thread/src/ipc.c ****  * This function will take a mutex, if the mutex is unavailable, the
 647:rt_thread/src/ipc.c ****  * thread shall wait for a specified time.
 648:rt_thread/src/ipc.c ****  *
 649:rt_thread/src/ipc.c ****  * @param mutex the mutex object
 650:rt_thread/src/ipc.c ****  * @param time the waiting time
 651:rt_thread/src/ipc.c ****  *
 652:rt_thread/src/ipc.c ****  * @return the error code
 653:rt_thread/src/ipc.c ****  */
 654:rt_thread/src/ipc.c **** rt_err_t rt_mutex_take(rt_mutex_t mutex, rt_int32_t time)
 655:rt_thread/src/ipc.c **** {
 1505              		.loc 1 655 0
 1506              		.cfi_startproc
 1507              		@ args = 0, pretend = 0, frame = 8
 1508              		@ frame_needed = 0, uses_anonymous_args = 0
 1509              	.LVL219:
 1510 0000 2DE9F041 		push	{r4, r5, r6, r7, r8, lr}
 1511              	.LCFI14:
 1512              		.cfi_def_cfa_offset 24
 1513              		.cfi_offset 4, -24
 1514              		.cfi_offset 5, -20
 1515              		.cfi_offset 6, -16
 1516              		.cfi_offset 7, -12
 1517              		.cfi_offset 8, -8
 1518              		.cfi_offset 14, -4
 1519 0004 82B0     		sub	sp, sp, #8
 1520              	.LCFI15:
 1521              		.cfi_def_cfa_offset 32
 1522 0006 0646     		mov	r6, r0
 1523 0008 0191     		str	r1, [sp, #4]
 1524              	.LBB207:
 656:rt_thread/src/ipc.c ****     register rt_base_t temp;
 657:rt_thread/src/ipc.c ****     struct rt_thread *thread;
 658:rt_thread/src/ipc.c **** 
 659:rt_thread/src/ipc.c ****     /* this function must not be used in interrupt even if time = 0 */
 660:rt_thread/src/ipc.c ****     RT_DEBUG_IN_THREAD_CONTEXT;
 1525              		.loc 1 660 0
 1526 000a FFF7FEFF 		bl	rt_hw_interrupt_disable
 1527              	.LVL220:
 1528 000e 0446     		mov	r4, r0
 1529              	.LVL221:
 1530 0010 FFF7FEFF 		bl	rt_thread_self
 1531              	.LVL222:
 1532 0014 50B9     		cbnz	r0, .L108
 1533              		.loc 1 660 0 is_stmt 0 discriminator 1
 1534 0016 624D     		ldr	r5, .L130
 1535 0018 2946     		mov	r1, r5
 1536 001a 6248     		ldr	r0, .L130+4
 1537 001c FFF7FEFF 		bl	rt_kprintf
 1538              	.LVL223:
 1539 0020 4FF42572 		mov	r2, #660
 1540 0024 2946     		mov	r1, r5
 1541 0026 6048     		ldr	r0, .L130+8
 1542 0028 FFF7FEFF 		bl	rt_assert_handler
ARM GAS  /tmp/ccObKSes.s 			page 42


 1543              	.LVL224:
 1544              	.L108:
 1545              	.LBB208:
 1546              		.loc 1 660 0 discriminator 5
 1547 002c FFF7FEFF 		bl	rt_hw_interrupt_disable
 1548              	.LVL225:
 1549 0030 0546     		mov	r5, r0
 1550              	.LVL226:
 1551 0032 FFF7FEFF 		bl	rt_interrupt_get_nest
 1552              	.LVL227:
 1553 0036 50B1     		cbz	r0, .L109
 1554              		.loc 1 660 0 discriminator 6
 1555 0038 594F     		ldr	r7, .L130
 1556 003a 3946     		mov	r1, r7
 1557 003c 5B48     		ldr	r0, .L130+12
 1558 003e FFF7FEFF 		bl	rt_kprintf
 1559              	.LVL228:
 1560 0042 4FF42572 		mov	r2, #660
 1561 0046 3946     		mov	r1, r7
 1562 0048 5748     		ldr	r0, .L130+8
 1563 004a FFF7FEFF 		bl	rt_assert_handler
 1564              	.LVL229:
 1565              	.L109:
 1566              		.loc 1 660 0 discriminator 10
 1567 004e 2846     		mov	r0, r5
 1568 0050 FFF7FEFF 		bl	rt_hw_interrupt_enable
 1569              	.LVL230:
 1570              	.LBE208:
 1571 0054 2046     		mov	r0, r4
 1572 0056 FFF7FEFF 		bl	rt_hw_interrupt_enable
 1573              	.LVL231:
 1574              	.LBE207:
 661:rt_thread/src/ipc.c **** 
 662:rt_thread/src/ipc.c ****     /* parameter check */
 663:rt_thread/src/ipc.c ****     RT_ASSERT(mutex != RT_NULL);
 1575              		.loc 1 663 0 is_stmt 1 discriminator 10
 1576 005a 2EB9     		cbnz	r6, .L110
 1577              		.loc 1 663 0 is_stmt 0 discriminator 1
 1578 005c 40F29722 		movw	r2, #663
 1579 0060 4F49     		ldr	r1, .L130
 1580 0062 5348     		ldr	r0, .L130+16
 1581 0064 FFF7FEFF 		bl	rt_assert_handler
 1582              	.LVL232:
 1583              	.L110:
 664:rt_thread/src/ipc.c ****     RT_ASSERT(rt_object_get_type(&mutex->parent.parent) == RT_Object_Class_Mutex);
 1584              		.loc 1 664 0 is_stmt 1
 1585 0068 3046     		mov	r0, r6
 1586 006a FFF7FEFF 		bl	rt_object_get_type
 1587              	.LVL233:
 1588 006e 0328     		cmp	r0, #3
 1589 0070 05D0     		beq	.L111
 1590              		.loc 1 664 0 is_stmt 0 discriminator 1
 1591 0072 4FF42672 		mov	r2, #664
 1592 0076 4A49     		ldr	r1, .L130
 1593 0078 4E48     		ldr	r0, .L130+20
 1594 007a FFF7FEFF 		bl	rt_assert_handler
 1595              	.LVL234:
ARM GAS  /tmp/ccObKSes.s 			page 43


 1596              	.L111:
 665:rt_thread/src/ipc.c **** 
 666:rt_thread/src/ipc.c ****     /* get current thread */
 667:rt_thread/src/ipc.c ****     thread = rt_thread_self();
 1597              		.loc 1 667 0 is_stmt 1
 1598 007e FFF7FEFF 		bl	rt_thread_self
 1599              	.LVL235:
 1600 0082 0446     		mov	r4, r0
 1601              	.LVL236:
 668:rt_thread/src/ipc.c **** 
 669:rt_thread/src/ipc.c ****     /* disable interrupt */
 670:rt_thread/src/ipc.c ****     temp = rt_hw_interrupt_disable();
 1602              		.loc 1 670 0
 1603 0084 FFF7FEFF 		bl	rt_hw_interrupt_disable
 1604              	.LVL237:
 1605 0088 8046     		mov	r8, r0
 1606              	.LVL238:
 671:rt_thread/src/ipc.c **** 
 672:rt_thread/src/ipc.c ****     RT_OBJECT_HOOK_CALL(rt_object_trytake_hook, (&(mutex->parent.parent)));
 1607              		.loc 1 672 0
 1608 008a 4B4B     		ldr	r3, .L130+24
 1609 008c 1B68     		ldr	r3, [r3]
 1610 008e 0BB1     		cbz	r3, .L112
 1611              		.loc 1 672 0 is_stmt 0 discriminator 1
 1612 0090 3046     		mov	r0, r6
 1613              	.LVL239:
 1614 0092 9847     		blx	r3
 1615              	.LVL240:
 1616              	.L112:
 673:rt_thread/src/ipc.c **** 
 674:rt_thread/src/ipc.c ****     RT_DEBUG_LOG(RT_DEBUG_IPC,
 675:rt_thread/src/ipc.c ****                  ("mutex_take: current thread %s, mutex value: %d, hold: %d\n",
 676:rt_thread/src/ipc.c ****                   thread->name, mutex->value, mutex->hold));
 677:rt_thread/src/ipc.c **** 
 678:rt_thread/src/ipc.c ****     /* reset thread error */
 679:rt_thread/src/ipc.c ****     thread->error = RT_EOK;
 1617              		.loc 1 679 0 is_stmt 1
 1618 0094 0023     		movs	r3, #0
 1619 0096 2363     		str	r3, [r4, #48]
 680:rt_thread/src/ipc.c **** 
 681:rt_thread/src/ipc.c ****     if (mutex->owner == thread)
 1620              		.loc 1 681 0
 1621 0098 336A     		ldr	r3, [r6, #32]
 1622 009a 9C42     		cmp	r4, r3
 1623 009c 03D1     		bne	.L113
 682:rt_thread/src/ipc.c ****     {
 683:rt_thread/src/ipc.c ****         /* it's the same thread */
 684:rt_thread/src/ipc.c ****         mutex->hold ++;
 1624              		.loc 1 684 0
 1625 009e F37F     		ldrb	r3, [r6, #31]	@ zero_extendqisi2
 1626 00a0 0133     		adds	r3, r3, #1
 1627 00a2 F377     		strb	r3, [r6, #31]
 1628 00a4 6DE0     		b	.L114
 1629              	.LVL241:
 1630              	.L113:
 685:rt_thread/src/ipc.c ****     }
 686:rt_thread/src/ipc.c ****     else
ARM GAS  /tmp/ccObKSes.s 			page 44


 687:rt_thread/src/ipc.c ****     {
 688:rt_thread/src/ipc.c **** __again:
 689:rt_thread/src/ipc.c ****         /* The value of mutex is 1 in initial status. Therefore, if the
 690:rt_thread/src/ipc.c ****          * value is great than 0, it indicates the mutex is avaible.
 691:rt_thread/src/ipc.c ****          */
 692:rt_thread/src/ipc.c ****         if (mutex->value > 0)
 1631              		.loc 1 692 0
 1632 00a6 B38B     		ldrh	r3, [r6, #28]
 1633 00a8 4BB1     		cbz	r3, .L115
 693:rt_thread/src/ipc.c ****         {
 694:rt_thread/src/ipc.c ****             /* mutex is available */
 695:rt_thread/src/ipc.c ****             mutex->value --;
 1634              		.loc 1 695 0
 1635 00aa 013B     		subs	r3, r3, #1
 1636 00ac B383     		strh	r3, [r6, #28]	@ movhi
 696:rt_thread/src/ipc.c **** 
 697:rt_thread/src/ipc.c ****             /* set mutex owner and original priority */
 698:rt_thread/src/ipc.c ****             mutex->owner             = thread;
 1637              		.loc 1 698 0
 1638 00ae 3462     		str	r4, [r6, #32]
 699:rt_thread/src/ipc.c ****             mutex->original_priority = thread->current_priority;
 1639              		.loc 1 699 0
 1640 00b0 94F83530 		ldrb	r3, [r4, #53]	@ zero_extendqisi2
 1641 00b4 B377     		strb	r3, [r6, #30]
 700:rt_thread/src/ipc.c ****             mutex->hold ++;
 1642              		.loc 1 700 0
 1643 00b6 F37F     		ldrb	r3, [r6, #31]	@ zero_extendqisi2
 1644 00b8 0133     		adds	r3, r3, #1
 1645 00ba F377     		strb	r3, [r6, #31]
 1646 00bc 61E0     		b	.L114
 1647              	.L115:
 701:rt_thread/src/ipc.c ****         }
 702:rt_thread/src/ipc.c ****         else
 703:rt_thread/src/ipc.c ****         {
 704:rt_thread/src/ipc.c ****             /* no waiting, return with timeout */
 705:rt_thread/src/ipc.c ****             if (time == 0)
 1648              		.loc 1 705 0
 1649 00be 019B     		ldr	r3, [sp, #4]
 1650 00c0 3BB9     		cbnz	r3, .L116
 706:rt_thread/src/ipc.c ****             {
 707:rt_thread/src/ipc.c ****                 /* set error as timeout */
 708:rt_thread/src/ipc.c ****                 thread->error = -RT_ETIMEOUT;
 1651              		.loc 1 708 0
 1652 00c2 6FF00105 		mvn	r5, #1
 1653 00c6 2563     		str	r5, [r4, #48]
 709:rt_thread/src/ipc.c **** 
 710:rt_thread/src/ipc.c ****                 /* enable interrupt */
 711:rt_thread/src/ipc.c ****                 rt_hw_interrupt_enable(temp);
 1654              		.loc 1 711 0
 1655 00c8 4046     		mov	r0, r8
 1656 00ca FFF7FEFF 		bl	rt_hw_interrupt_enable
 1657              	.LVL242:
 712:rt_thread/src/ipc.c **** 
 713:rt_thread/src/ipc.c ****                 return -RT_ETIMEOUT;
 1658              		.loc 1 713 0
 1659 00ce 2846     		mov	r0, r5
 1660 00d0 62E0     		b	.L117
ARM GAS  /tmp/ccObKSes.s 			page 45


 1661              	.L116:
 714:rt_thread/src/ipc.c ****             }
 715:rt_thread/src/ipc.c ****             else
 716:rt_thread/src/ipc.c ****             {
 717:rt_thread/src/ipc.c ****                 /* mutex is unavailable, push to suspend list */
 718:rt_thread/src/ipc.c ****                 RT_DEBUG_LOG(RT_DEBUG_IPC, ("mutex_take: suspend thread: %s\n",
 719:rt_thread/src/ipc.c ****                                             thread->name));
 720:rt_thread/src/ipc.c **** 
 721:rt_thread/src/ipc.c ****                 /* change the owner thread priority of mutex */
 722:rt_thread/src/ipc.c ****                 if (thread->current_priority < mutex->owner->current_priority)
 1662              		.loc 1 722 0
 1663 00d2 94F83520 		ldrb	r2, [r4, #53]	@ zero_extendqisi2
 1664 00d6 306A     		ldr	r0, [r6, #32]
 1665 00d8 90F83530 		ldrb	r3, [r0, #53]	@ zero_extendqisi2
 1666 00dc 9A42     		cmp	r2, r3
 1667 00de 04D2     		bcs	.L118
 723:rt_thread/src/ipc.c ****                 {
 724:rt_thread/src/ipc.c ****                     /* change the owner thread priority */
 725:rt_thread/src/ipc.c ****                     rt_thread_control(mutex->owner,
 1668              		.loc 1 725 0
 1669 00e0 04F13502 		add	r2, r4, #53
 1670 00e4 0221     		movs	r1, #2
 1671 00e6 FFF7FEFF 		bl	rt_thread_control
 1672              	.LVL243:
 1673              	.L118:
 726:rt_thread/src/ipc.c ****                                       RT_THREAD_CTRL_CHANGE_PRIORITY,
 727:rt_thread/src/ipc.c ****                                       &thread->current_priority);
 728:rt_thread/src/ipc.c ****                 }
 729:rt_thread/src/ipc.c **** 
 730:rt_thread/src/ipc.c ****                 /* suspend current thread */
 731:rt_thread/src/ipc.c ****                 rt_ipc_list_suspend(&(mutex->parent.suspend_thread),
 1674              		.loc 1 731 0
 1675 00ea 06F11405 		add	r5, r6, #20
 1676 00ee 777A     		ldrb	r7, [r6, #9]	@ zero_extendqisi2
 1677              	.LVL244:
 1678              	.LBB209:
 1679              	.LBB210:
  85:rt_thread/src/ipc.c **** 
 1680              		.loc 1 85 0
 1681 00f0 2046     		mov	r0, r4
 1682 00f2 FFF7FEFF 		bl	rt_thread_suspend
 1683              	.LVL245:
  87:rt_thread/src/ipc.c ****     {
 1684              		.loc 1 87 0
 1685 00f6 17B1     		cbz	r7, .L120
 1686 00f8 012F     		cmp	r7, #1
 1687 00fa 09D0     		beq	.L121
 1688 00fc 26E0     		b	.L119
 1689              	.L120:
  90:rt_thread/src/ipc.c ****         break;
 1690              		.loc 1 90 0
 1691 00fe 04F11403 		add	r3, r4, #20
 1692              	.LVL246:
 1693              	.LBB211:
 1694              	.LBB212:
  75:rt_thread/include/rtservice.h ****     n->prev = l->prev;
 1695              		.loc 2 75 0
ARM GAS  /tmp/ccObKSes.s 			page 46


 1696 0102 6A68     		ldr	r2, [r5, #4]
 1697 0104 1360     		str	r3, [r2]
  76:rt_thread/include/rtservice.h **** 
 1698              		.loc 2 76 0
 1699 0106 6A68     		ldr	r2, [r5, #4]
 1700 0108 A261     		str	r2, [r4, #24]
  78:rt_thread/include/rtservice.h ****     n->next = l;
 1701              		.loc 2 78 0
 1702 010a 6B60     		str	r3, [r5, #4]
  79:rt_thread/include/rtservice.h **** }
 1703              		.loc 2 79 0
 1704 010c 6561     		str	r5, [r4, #20]
 1705 010e 1DE0     		b	.L119
 1706              	.LVL247:
 1707              	.L121:
 1708              	.LBE212:
 1709              	.LBE211:
 1710              	.LBB213:
  99:rt_thread/src/ipc.c ****             {
 1711              		.loc 1 99 0
 1712 0110 7369     		ldr	r3, [r6, #20]
 1713              	.LVL248:
 1714 0112 0FE0     		b	.L122
 1715              	.L125:
 1716              	.LVL249:
 104:rt_thread/src/ipc.c ****                 {
 1717              		.loc 1 104 0
 1718 0114 94F83510 		ldrb	r1, [r4, #53]	@ zero_extendqisi2
 1719 0118 93F82120 		ldrb	r2, [r3, #33]	@ zero_extendqisi2
 1720 011c 9142     		cmp	r1, r2
 1721 011e 08D2     		bcs	.L123
 107:rt_thread/src/ipc.c ****                     break;
 1722              		.loc 1 107 0
 1723 0120 04F11402 		add	r2, r4, #20
 1724              	.LVL250:
 1725              	.LBB214:
 1726              	.LBB215:
  75:rt_thread/include/rtservice.h ****     n->prev = l->prev;
 1727              		.loc 2 75 0
 1728 0124 5968     		ldr	r1, [r3, #4]
 1729 0126 0A60     		str	r2, [r1]
  76:rt_thread/include/rtservice.h **** 
 1730              		.loc 2 76 0
 1731 0128 5968     		ldr	r1, [r3, #4]
 1732 012a A161     		str	r1, [r4, #24]
  78:rt_thread/include/rtservice.h ****     n->next = l;
 1733              		.loc 2 78 0
 1734 012c 5A60     		str	r2, [r3, #4]
  79:rt_thread/include/rtservice.h **** }
 1735              		.loc 2 79 0
 1736 012e 6361     		str	r3, [r4, #20]
 1737 0130 02E0     		b	.L124
 1738              	.LVL251:
 1739              	.L123:
 1740              	.LBE215:
 1741              	.LBE214:
  99:rt_thread/src/ipc.c ****             {
ARM GAS  /tmp/ccObKSes.s 			page 47


 1742              		.loc 1 99 0
 1743 0132 1B68     		ldr	r3, [r3]
 1744              	.LVL252:
 1745              	.L122:
 1746 0134 9D42     		cmp	r5, r3
 1747 0136 EDD1     		bne	.L125
 1748              	.L124:
 116:rt_thread/src/ipc.c ****                 rt_list_insert_before(list, &(thread->tlist));
 1749              		.loc 1 116 0
 1750 0138 9D42     		cmp	r5, r3
 1751 013a 07D1     		bne	.L119
 117:rt_thread/src/ipc.c ****         }
 1752              		.loc 1 117 0
 1753 013c 04F11403 		add	r3, r4, #20
 1754              	.LVL253:
 1755              	.LBB216:
 1756              	.LBB217:
  75:rt_thread/include/rtservice.h ****     n->prev = l->prev;
 1757              		.loc 2 75 0
 1758 0140 6A68     		ldr	r2, [r5, #4]
 1759 0142 1360     		str	r3, [r2]
  76:rt_thread/include/rtservice.h **** 
 1760              		.loc 2 76 0
 1761 0144 6A68     		ldr	r2, [r5, #4]
 1762 0146 A261     		str	r2, [r4, #24]
  78:rt_thread/include/rtservice.h ****     n->next = l;
 1763              		.loc 2 78 0
 1764 0148 6B60     		str	r3, [r5, #4]
  79:rt_thread/include/rtservice.h **** }
 1765              		.loc 2 79 0
 1766 014a 6561     		str	r5, [r4, #20]
 1767              	.LVL254:
 1768              	.L119:
 1769              	.LBE217:
 1770              	.LBE216:
 1771              	.LBE213:
 1772              	.LBE210:
 1773              	.LBE209:
 732:rt_thread/src/ipc.c ****                                     thread,
 733:rt_thread/src/ipc.c ****                                     mutex->parent.parent.flag);
 734:rt_thread/src/ipc.c **** 
 735:rt_thread/src/ipc.c ****                 /* has waiting time, start thread timer */
 736:rt_thread/src/ipc.c ****                 if (time > 0)
 1774              		.loc 1 736 0
 1775 014c 019B     		ldr	r3, [sp, #4]
 1776 014e 002B     		cmp	r3, #0
 1777 0150 09DD     		ble	.L126
 737:rt_thread/src/ipc.c ****                 {
 738:rt_thread/src/ipc.c ****                     RT_DEBUG_LOG(RT_DEBUG_IPC,
 739:rt_thread/src/ipc.c ****                                  ("mutex_take: start the timer of thread:%s\n",
 740:rt_thread/src/ipc.c ****                                   thread->name));
 741:rt_thread/src/ipc.c **** 
 742:rt_thread/src/ipc.c ****                     /* reset the timeout of thread timer and start it */
 743:rt_thread/src/ipc.c ****                     rt_timer_control(&(thread->thread_timer),
 1778              		.loc 1 743 0
 1779 0152 04F16005 		add	r5, r4, #96
 1780 0156 01AA     		add	r2, sp, #4
ARM GAS  /tmp/ccObKSes.s 			page 48


 1781              	.LVL255:
 1782 0158 0021     		movs	r1, #0
 1783 015a 2846     		mov	r0, r5
 1784 015c FFF7FEFF 		bl	rt_timer_control
 1785              	.LVL256:
 744:rt_thread/src/ipc.c ****                                      RT_TIMER_CTRL_SET_TIME,
 745:rt_thread/src/ipc.c ****                                      &time);
 746:rt_thread/src/ipc.c ****                     rt_timer_start(&(thread->thread_timer));
 1786              		.loc 1 746 0
 1787 0160 2846     		mov	r0, r5
 1788 0162 FFF7FEFF 		bl	rt_timer_start
 1789              	.LVL257:
 1790              	.L126:
 747:rt_thread/src/ipc.c ****                 }
 748:rt_thread/src/ipc.c **** 
 749:rt_thread/src/ipc.c ****                 /* enable interrupt */
 750:rt_thread/src/ipc.c ****                 rt_hw_interrupt_enable(temp);
 1791              		.loc 1 750 0
 1792 0166 4046     		mov	r0, r8
 1793 0168 FFF7FEFF 		bl	rt_hw_interrupt_enable
 1794              	.LVL258:
 751:rt_thread/src/ipc.c **** 
 752:rt_thread/src/ipc.c ****                 /* do schedule */
 753:rt_thread/src/ipc.c ****                 rt_schedule();
 1795              		.loc 1 753 0
 1796 016c FFF7FEFF 		bl	rt_schedule
 1797              	.LVL259:
 754:rt_thread/src/ipc.c **** 
 755:rt_thread/src/ipc.c ****                 if (thread->error != RT_EOK)
 1798              		.loc 1 755 0
 1799 0170 206B     		ldr	r0, [r4, #48]
 1800 0172 18B1     		cbz	r0, .L127
 756:rt_thread/src/ipc.c ****                 {
 757:rt_thread/src/ipc.c ****                     /* interrupt by signal, try it again */
 758:rt_thread/src/ipc.c ****                     if (thread->error == -RT_EINTR) goto __again;
 1801              		.loc 1 758 0
 1802 0174 10F1090F 		cmn	r0, #9
 1803 0178 95D0     		beq	.L113
 1804 017a 0DE0     		b	.L117
 1805              	.L127:
 759:rt_thread/src/ipc.c **** 
 760:rt_thread/src/ipc.c ****                     /* return error */
 761:rt_thread/src/ipc.c ****                     return thread->error;
 762:rt_thread/src/ipc.c ****                 }
 763:rt_thread/src/ipc.c ****                 else
 764:rt_thread/src/ipc.c ****                 {
 765:rt_thread/src/ipc.c ****                     /* the mutex is taken successfully. */
 766:rt_thread/src/ipc.c ****                     /* disable interrupt */
 767:rt_thread/src/ipc.c ****                     temp = rt_hw_interrupt_disable();
 1806              		.loc 1 767 0
 1807 017c FFF7FEFF 		bl	rt_hw_interrupt_disable
 1808              	.LVL260:
 1809 0180 8046     		mov	r8, r0
 1810              	.LVL261:
 1811              	.L114:
 768:rt_thread/src/ipc.c ****                 }
 769:rt_thread/src/ipc.c ****             }
ARM GAS  /tmp/ccObKSes.s 			page 49


 770:rt_thread/src/ipc.c ****         }
 771:rt_thread/src/ipc.c ****     }
 772:rt_thread/src/ipc.c **** 
 773:rt_thread/src/ipc.c ****     /* enable interrupt */
 774:rt_thread/src/ipc.c ****     rt_hw_interrupt_enable(temp);
 1812              		.loc 1 774 0
 1813 0182 4046     		mov	r0, r8
 1814 0184 FFF7FEFF 		bl	rt_hw_interrupt_enable
 1815              	.LVL262:
 775:rt_thread/src/ipc.c **** 
 776:rt_thread/src/ipc.c ****     RT_OBJECT_HOOK_CALL(rt_object_take_hook, (&(mutex->parent.parent)));
 1816              		.loc 1 776 0
 1817 0188 0C4B     		ldr	r3, .L130+28
 1818 018a 1B68     		ldr	r3, [r3]
 1819 018c 1BB1     		cbz	r3, .L128
 1820              		.loc 1 776 0 is_stmt 0 discriminator 1
 1821 018e 3046     		mov	r0, r6
 1822 0190 9847     		blx	r3
 1823              	.LVL263:
 777:rt_thread/src/ipc.c **** 
 778:rt_thread/src/ipc.c ****     return RT_EOK;
 1824              		.loc 1 778 0 is_stmt 1 discriminator 1
 1825 0192 0020     		movs	r0, #0
 1826 0194 00E0     		b	.L117
 1827              	.L128:
 1828              		.loc 1 778 0 is_stmt 0
 1829 0196 0020     		movs	r0, #0
 1830              	.L117:
 779:rt_thread/src/ipc.c **** }
 1831              		.loc 1 779 0 is_stmt 1
 1832 0198 02B0     		add	sp, sp, #8
 1833              	.LCFI16:
 1834              		.cfi_def_cfa_offset 24
 1835              		@ sp needed
 1836 019a BDE8F081 		pop	{r4, r5, r6, r7, r8, pc}
 1837              	.LVL264:
 1838              	.L131:
 1839 019e 00BF     		.align	2
 1840              	.L130:
 1841 01a0 00000000 		.word	.LANCHOR11
 1842 01a4 04010000 		.word	.LC7
 1843 01a8 C4000000 		.word	.LC5
 1844 01ac 9C000000 		.word	.LC4
 1845 01b0 3C010000 		.word	.LC8
 1846 01b4 50010000 		.word	.LC9
 1847 01b8 00000000 		.word	rt_object_trytake_hook
 1848 01bc 00000000 		.word	rt_object_take_hook
 1849              		.cfi_endproc
 1850              	.LFE31:
 1852              		.section	.text.rt_mutex_release,"ax",%progbits
 1853              		.align	2
 1854              		.global	rt_mutex_release
 1855              		.thumb
 1856              		.thumb_func
 1858              	rt_mutex_release:
 1859              	.LFB32:
 780:rt_thread/src/ipc.c **** RTM_EXPORT(rt_mutex_take);
ARM GAS  /tmp/ccObKSes.s 			page 50


 781:rt_thread/src/ipc.c **** 
 782:rt_thread/src/ipc.c **** /**
 783:rt_thread/src/ipc.c ****  * This function will release a mutex, if there are threads suspended on mutex,
 784:rt_thread/src/ipc.c ****  * it will be waked up.
 785:rt_thread/src/ipc.c ****  *
 786:rt_thread/src/ipc.c ****  * @param mutex the mutex object
 787:rt_thread/src/ipc.c ****  *
 788:rt_thread/src/ipc.c ****  * @return the error code
 789:rt_thread/src/ipc.c ****  */
 790:rt_thread/src/ipc.c **** rt_err_t rt_mutex_release(rt_mutex_t mutex)
 791:rt_thread/src/ipc.c **** {
 1860              		.loc 1 791 0
 1861              		.cfi_startproc
 1862              		@ args = 0, pretend = 0, frame = 0
 1863              		@ frame_needed = 0, uses_anonymous_args = 0
 1864              	.LVL265:
 1865 0000 F8B5     		push	{r3, r4, r5, r6, r7, lr}
 1866              	.LCFI17:
 1867              		.cfi_def_cfa_offset 24
 1868              		.cfi_offset 3, -24
 1869              		.cfi_offset 4, -20
 1870              		.cfi_offset 5, -16
 1871              		.cfi_offset 6, -12
 1872              		.cfi_offset 7, -8
 1873              		.cfi_offset 14, -4
 792:rt_thread/src/ipc.c ****     register rt_base_t temp;
 793:rt_thread/src/ipc.c ****     struct rt_thread *thread;
 794:rt_thread/src/ipc.c ****     rt_bool_t need_schedule;
 795:rt_thread/src/ipc.c **** 
 796:rt_thread/src/ipc.c ****     /* parameter check */
 797:rt_thread/src/ipc.c ****     RT_ASSERT(mutex != RT_NULL);
 1874              		.loc 1 797 0
 1875 0002 0446     		mov	r4, r0
 1876 0004 28B9     		cbnz	r0, .L133
 1877              		.loc 1 797 0 is_stmt 0 discriminator 1
 1878 0006 40F21D32 		movw	r2, #797
 1879 000a 4149     		ldr	r1, .L146
 1880 000c 4148     		ldr	r0, .L146+4
 1881              	.LVL266:
 1882 000e FFF7FEFF 		bl	rt_assert_handler
 1883              	.LVL267:
 1884              	.L133:
 798:rt_thread/src/ipc.c ****     RT_ASSERT(rt_object_get_type(&mutex->parent.parent) == RT_Object_Class_Mutex);
 1885              		.loc 1 798 0 is_stmt 1
 1886 0012 2046     		mov	r0, r4
 1887 0014 FFF7FEFF 		bl	rt_object_get_type
 1888              	.LVL268:
 1889 0018 0328     		cmp	r0, #3
 1890 001a 05D0     		beq	.L134
 1891              		.loc 1 798 0 is_stmt 0 discriminator 1
 1892 001c 40F21E32 		movw	r2, #798
 1893 0020 3B49     		ldr	r1, .L146
 1894 0022 3D48     		ldr	r0, .L146+8
 1895 0024 FFF7FEFF 		bl	rt_assert_handler
 1896              	.LVL269:
 1897              	.L134:
 1898              	.LBB218:
ARM GAS  /tmp/ccObKSes.s 			page 51


 799:rt_thread/src/ipc.c **** 
 800:rt_thread/src/ipc.c ****     need_schedule = RT_FALSE;
 801:rt_thread/src/ipc.c **** 
 802:rt_thread/src/ipc.c ****     /* only thread could release mutex because we need test the ownership */
 803:rt_thread/src/ipc.c ****     RT_DEBUG_IN_THREAD_CONTEXT;
 1899              		.loc 1 803 0 is_stmt 1
 1900 0028 FFF7FEFF 		bl	rt_hw_interrupt_disable
 1901              	.LVL270:
 1902 002c 0546     		mov	r5, r0
 1903              	.LVL271:
 1904 002e FFF7FEFF 		bl	rt_thread_self
 1905              	.LVL272:
 1906 0032 50B9     		cbnz	r0, .L135
 1907              		.loc 1 803 0 is_stmt 0 discriminator 1
 1908 0034 364E     		ldr	r6, .L146
 1909 0036 3146     		mov	r1, r6
 1910 0038 3848     		ldr	r0, .L146+12
 1911 003a FFF7FEFF 		bl	rt_kprintf
 1912              	.LVL273:
 1913 003e 40F22332 		movw	r2, #803
 1914 0042 3146     		mov	r1, r6
 1915 0044 3648     		ldr	r0, .L146+16
 1916 0046 FFF7FEFF 		bl	rt_assert_handler
 1917              	.LVL274:
 1918              	.L135:
 1919              	.LBB219:
 1920              		.loc 1 803 0 discriminator 5
 1921 004a FFF7FEFF 		bl	rt_hw_interrupt_disable
 1922              	.LVL275:
 1923 004e 0646     		mov	r6, r0
 1924              	.LVL276:
 1925 0050 FFF7FEFF 		bl	rt_interrupt_get_nest
 1926              	.LVL277:
 1927 0054 50B1     		cbz	r0, .L136
 1928              		.loc 1 803 0 discriminator 6
 1929 0056 2E4F     		ldr	r7, .L146
 1930 0058 3946     		mov	r1, r7
 1931 005a 3248     		ldr	r0, .L146+20
 1932 005c FFF7FEFF 		bl	rt_kprintf
 1933              	.LVL278:
 1934 0060 40F22332 		movw	r2, #803
 1935 0064 3946     		mov	r1, r7
 1936 0066 2E48     		ldr	r0, .L146+16
 1937 0068 FFF7FEFF 		bl	rt_assert_handler
 1938              	.LVL279:
 1939              	.L136:
 1940              		.loc 1 803 0 discriminator 10
 1941 006c 3046     		mov	r0, r6
 1942 006e FFF7FEFF 		bl	rt_hw_interrupt_enable
 1943              	.LVL280:
 1944              	.LBE219:
 1945 0072 2846     		mov	r0, r5
 1946 0074 FFF7FEFF 		bl	rt_hw_interrupt_enable
 1947              	.LVL281:
 1948              	.LBE218:
 804:rt_thread/src/ipc.c **** 
 805:rt_thread/src/ipc.c ****     /* get current thread */
ARM GAS  /tmp/ccObKSes.s 			page 52


 806:rt_thread/src/ipc.c ****     thread = rt_thread_self();
 1949              		.loc 1 806 0 is_stmt 1 discriminator 10
 1950 0078 FFF7FEFF 		bl	rt_thread_self
 1951              	.LVL282:
 1952 007c 0646     		mov	r6, r0
 1953              	.LVL283:
 807:rt_thread/src/ipc.c **** 
 808:rt_thread/src/ipc.c ****     /* disable interrupt */
 809:rt_thread/src/ipc.c ****     temp = rt_hw_interrupt_disable();
 1954              		.loc 1 809 0 discriminator 10
 1955 007e FFF7FEFF 		bl	rt_hw_interrupt_disable
 1956              	.LVL284:
 1957 0082 0546     		mov	r5, r0
 1958              	.LVL285:
 810:rt_thread/src/ipc.c **** 
 811:rt_thread/src/ipc.c ****     RT_DEBUG_LOG(RT_DEBUG_IPC,
 812:rt_thread/src/ipc.c ****                  ("mutex_release:current thread %s, mutex value: %d, hold: %d\n",
 813:rt_thread/src/ipc.c ****                   thread->name, mutex->value, mutex->hold));
 814:rt_thread/src/ipc.c **** 
 815:rt_thread/src/ipc.c ****     RT_OBJECT_HOOK_CALL(rt_object_put_hook, (&(mutex->parent.parent)));
 1959              		.loc 1 815 0 discriminator 10
 1960 0084 284B     		ldr	r3, .L146+24
 1961 0086 1B68     		ldr	r3, [r3]
 1962 0088 0BB1     		cbz	r3, .L137
 1963              		.loc 1 815 0 is_stmt 0 discriminator 1
 1964 008a 2046     		mov	r0, r4
 1965              	.LVL286:
 1966 008c 9847     		blx	r3
 1967              	.LVL287:
 1968              	.L137:
 816:rt_thread/src/ipc.c **** 
 817:rt_thread/src/ipc.c ****     /* mutex only can be released by owner */
 818:rt_thread/src/ipc.c ****     if (thread != mutex->owner)
 1969              		.loc 1 818 0 is_stmt 1
 1970 008e 206A     		ldr	r0, [r4, #32]
 1971 0090 8642     		cmp	r6, r0
 1972 0092 07D0     		beq	.L138
 819:rt_thread/src/ipc.c ****     {
 820:rt_thread/src/ipc.c ****         thread->error = -RT_ERROR;
 1973              		.loc 1 820 0
 1974 0094 4FF0FF34 		mov	r4, #-1
 1975              	.LVL288:
 1976 0098 3463     		str	r4, [r6, #48]
 821:rt_thread/src/ipc.c **** 
 822:rt_thread/src/ipc.c ****         /* enable interrupt */
 823:rt_thread/src/ipc.c ****         rt_hw_interrupt_enable(temp);
 1977              		.loc 1 823 0
 1978 009a 2846     		mov	r0, r5
 1979 009c FFF7FEFF 		bl	rt_hw_interrupt_enable
 1980              	.LVL289:
 824:rt_thread/src/ipc.c **** 
 825:rt_thread/src/ipc.c ****         return -RT_ERROR;
 1981              		.loc 1 825 0
 1982 00a0 2046     		mov	r0, r4
 1983 00a2 F8BD     		pop	{r3, r4, r5, r6, r7, pc}
 1984              	.LVL290:
 1985              	.L138:
ARM GAS  /tmp/ccObKSes.s 			page 53


 826:rt_thread/src/ipc.c ****     }
 827:rt_thread/src/ipc.c **** 
 828:rt_thread/src/ipc.c ****     /* decrease hold */
 829:rt_thread/src/ipc.c ****     mutex->hold --;
 1986              		.loc 1 829 0
 1987 00a4 E37F     		ldrb	r3, [r4, #31]	@ zero_extendqisi2
 1988 00a6 013B     		subs	r3, r3, #1
 1989 00a8 DBB2     		uxtb	r3, r3
 1990 00aa E377     		strb	r3, [r4, #31]
 830:rt_thread/src/ipc.c ****     /* if no hold */
 831:rt_thread/src/ipc.c ****     if (mutex->hold == 0)
 1991              		.loc 1 831 0
 1992 00ac 23BB     		cbnz	r3, .L143
 832:rt_thread/src/ipc.c ****     {
 833:rt_thread/src/ipc.c ****         /* change the owner thread to original priority */
 834:rt_thread/src/ipc.c ****         if (mutex->original_priority != mutex->owner->current_priority)
 1993              		.loc 1 834 0
 1994 00ae A27F     		ldrb	r2, [r4, #30]	@ zero_extendqisi2
 1995 00b0 90F83530 		ldrb	r3, [r0, #53]	@ zero_extendqisi2
 1996 00b4 9A42     		cmp	r2, r3
 1997 00b6 04D0     		beq	.L141
 835:rt_thread/src/ipc.c ****         {
 836:rt_thread/src/ipc.c ****             rt_thread_control(mutex->owner,
 1998              		.loc 1 836 0
 1999 00b8 04F11E02 		add	r2, r4, #30
 2000 00bc 0221     		movs	r1, #2
 2001 00be FFF7FEFF 		bl	rt_thread_control
 2002              	.LVL291:
 2003              	.L141:
 837:rt_thread/src/ipc.c ****                               RT_THREAD_CTRL_CHANGE_PRIORITY,
 838:rt_thread/src/ipc.c ****                               &(mutex->original_priority));
 839:rt_thread/src/ipc.c ****         }
 840:rt_thread/src/ipc.c **** 
 841:rt_thread/src/ipc.c ****         /* wakeup suspended thread */
 842:rt_thread/src/ipc.c ****         if (!rt_list_isempty(&mutex->parent.suspend_thread))
 2004              		.loc 1 842 0
 2005 00c2 04F11403 		add	r3, r4, #20
 2006              	.LBB220:
 2007              	.LBB221:
 2008              		.loc 2 100 0
 2009 00c6 6269     		ldr	r2, [r4, #20]
 2010              	.LBE221:
 2011              	.LBE220:
 2012              		.loc 1 842 0
 2013 00c8 9342     		cmp	r3, r2
 2014 00ca 0CD0     		beq	.L142
 843:rt_thread/src/ipc.c ****         {
 844:rt_thread/src/ipc.c ****             /* get suspended thread */
 845:rt_thread/src/ipc.c ****             thread = rt_list_entry(mutex->parent.suspend_thread.next,
 2015              		.loc 1 845 0
 2016 00cc A2F11400 		sub	r0, r2, #20
 2017              	.LVL292:
 846:rt_thread/src/ipc.c ****                                    struct rt_thread,
 847:rt_thread/src/ipc.c ****                                    tlist);
 848:rt_thread/src/ipc.c **** 
 849:rt_thread/src/ipc.c ****             RT_DEBUG_LOG(RT_DEBUG_IPC, ("mutex_release: resume thread: %s\n",
 850:rt_thread/src/ipc.c ****                                         thread->name));
ARM GAS  /tmp/ccObKSes.s 			page 54


 851:rt_thread/src/ipc.c **** 
 852:rt_thread/src/ipc.c ****             /* set new owner and priority */
 853:rt_thread/src/ipc.c ****             mutex->owner             = thread;
 2018              		.loc 1 853 0
 2019 00d0 2062     		str	r0, [r4, #32]
 854:rt_thread/src/ipc.c ****             mutex->original_priority = thread->current_priority;
 2020              		.loc 1 854 0
 2021 00d2 92F82130 		ldrb	r3, [r2, #33]	@ zero_extendqisi2
 2022 00d6 A377     		strb	r3, [r4, #30]
 855:rt_thread/src/ipc.c ****             mutex->hold ++;
 2023              		.loc 1 855 0
 2024 00d8 E37F     		ldrb	r3, [r4, #31]	@ zero_extendqisi2
 2025 00da 0133     		adds	r3, r3, #1
 2026 00dc E377     		strb	r3, [r4, #31]
 2027              	.LVL293:
 2028              	.LBB222:
 2029              	.LBB223:
 144:rt_thread/src/ipc.c **** 
 2030              		.loc 1 144 0
 2031 00de FFF7FEFF 		bl	rt_thread_resume
 2032              	.LVL294:
 2033              	.LBE223:
 2034              	.LBE222:
 856:rt_thread/src/ipc.c **** 
 857:rt_thread/src/ipc.c ****             /* resume thread */
 858:rt_thread/src/ipc.c ****             rt_ipc_list_resume(&(mutex->parent.suspend_thread));
 859:rt_thread/src/ipc.c **** 
 860:rt_thread/src/ipc.c ****             need_schedule = RT_TRUE;
 2035              		.loc 1 860 0
 2036 00e2 0124     		movs	r4, #1
 2037              	.LVL295:
 2038 00e4 09E0     		b	.L140
 2039              	.LVL296:
 2040              	.L142:
 861:rt_thread/src/ipc.c ****         }
 862:rt_thread/src/ipc.c ****         else
 863:rt_thread/src/ipc.c ****         {
 864:rt_thread/src/ipc.c ****             /* increase value */
 865:rt_thread/src/ipc.c ****             mutex->value ++;
 2041              		.loc 1 865 0
 2042 00e6 A38B     		ldrh	r3, [r4, #28]
 2043 00e8 0133     		adds	r3, r3, #1
 2044 00ea A383     		strh	r3, [r4, #28]	@ movhi
 866:rt_thread/src/ipc.c **** 
 867:rt_thread/src/ipc.c ****             /* clear owner */
 868:rt_thread/src/ipc.c ****             mutex->owner             = RT_NULL;
 2045              		.loc 1 868 0
 2046 00ec 0023     		movs	r3, #0
 2047 00ee 2362     		str	r3, [r4, #32]
 869:rt_thread/src/ipc.c ****             mutex->original_priority = 0xff;
 2048              		.loc 1 869 0
 2049 00f0 FF22     		movs	r2, #255
 2050 00f2 A277     		strb	r2, [r4, #30]
 800:rt_thread/src/ipc.c **** 
 2051              		.loc 1 800 0
 2052 00f4 1C46     		mov	r4, r3
 2053              	.LVL297:
ARM GAS  /tmp/ccObKSes.s 			page 55


 2054 00f6 00E0     		b	.L140
 2055              	.LVL298:
 2056              	.L143:
 2057 00f8 0024     		movs	r4, #0
 2058              	.LVL299:
 2059              	.L140:
 870:rt_thread/src/ipc.c ****         }
 871:rt_thread/src/ipc.c ****     }
 872:rt_thread/src/ipc.c **** 
 873:rt_thread/src/ipc.c ****     /* enable interrupt */
 874:rt_thread/src/ipc.c ****     rt_hw_interrupt_enable(temp);
 2060              		.loc 1 874 0
 2061 00fa 2846     		mov	r0, r5
 2062 00fc FFF7FEFF 		bl	rt_hw_interrupt_enable
 2063              	.LVL300:
 875:rt_thread/src/ipc.c **** 
 876:rt_thread/src/ipc.c ****     /* perform a schedule */
 877:rt_thread/src/ipc.c ****     if (need_schedule == RT_TRUE)
 2064              		.loc 1 877 0
 2065 0100 1CB1     		cbz	r4, .L144
 878:rt_thread/src/ipc.c ****         rt_schedule();
 2066              		.loc 1 878 0
 2067 0102 FFF7FEFF 		bl	rt_schedule
 2068              	.LVL301:
 879:rt_thread/src/ipc.c **** 
 880:rt_thread/src/ipc.c ****     return RT_EOK;
 2069              		.loc 1 880 0
 2070 0106 0020     		movs	r0, #0
 2071 0108 F8BD     		pop	{r3, r4, r5, r6, r7, pc}
 2072              	.LVL302:
 2073              	.L144:
 2074 010a 0020     		movs	r0, #0
 881:rt_thread/src/ipc.c **** }
 2075              		.loc 1 881 0
 2076 010c F8BD     		pop	{r3, r4, r5, r6, r7, pc}
 2077              	.LVL303:
 2078              	.L147:
 2079 010e 00BF     		.align	2
 2080              	.L146:
 2081 0110 00000000 		.word	.LANCHOR12
 2082 0114 3C010000 		.word	.LC8
 2083 0118 50010000 		.word	.LC9
 2084 011c 04010000 		.word	.LC7
 2085 0120 C4000000 		.word	.LC5
 2086 0124 9C000000 		.word	.LC4
 2087 0128 00000000 		.word	rt_object_put_hook
 2088              		.cfi_endproc
 2089              	.LFE32:
 2091              		.section	.text.rt_mutex_control,"ax",%progbits
 2092              		.align	2
 2093              		.global	rt_mutex_control
 2094              		.thumb
 2095              		.thumb_func
 2097              	rt_mutex_control:
 2098              	.LFB33:
 882:rt_thread/src/ipc.c **** RTM_EXPORT(rt_mutex_release);
 883:rt_thread/src/ipc.c **** 
ARM GAS  /tmp/ccObKSes.s 			page 56


 884:rt_thread/src/ipc.c **** /**
 885:rt_thread/src/ipc.c ****  * This function can get or set some extra attributions of a mutex object.
 886:rt_thread/src/ipc.c ****  *
 887:rt_thread/src/ipc.c ****  * @param mutex the mutex object
 888:rt_thread/src/ipc.c ****  * @param cmd the execution command
 889:rt_thread/src/ipc.c ****  * @param arg the execution argument
 890:rt_thread/src/ipc.c ****  *
 891:rt_thread/src/ipc.c ****  * @return the error code
 892:rt_thread/src/ipc.c ****  */
 893:rt_thread/src/ipc.c **** rt_err_t rt_mutex_control(rt_mutex_t mutex, int cmd, void *arg)
 894:rt_thread/src/ipc.c **** {
 2099              		.loc 1 894 0
 2100              		.cfi_startproc
 2101              		@ args = 0, pretend = 0, frame = 0
 2102              		@ frame_needed = 0, uses_anonymous_args = 0
 2103              	.LVL304:
 2104 0000 10B5     		push	{r4, lr}
 2105              	.LCFI18:
 2106              		.cfi_def_cfa_offset 8
 2107              		.cfi_offset 4, -8
 2108              		.cfi_offset 14, -4
 895:rt_thread/src/ipc.c ****     /* parameter check */
 896:rt_thread/src/ipc.c ****     RT_ASSERT(mutex != RT_NULL);
 2109              		.loc 1 896 0
 2110 0002 0446     		mov	r4, r0
 2111 0004 28B9     		cbnz	r0, .L149
 2112              		.loc 1 896 0 is_stmt 0 discriminator 1
 2113 0006 4FF46072 		mov	r2, #896
 2114              	.LVL305:
 2115 000a 0949     		ldr	r1, .L152
 2116              	.LVL306:
 2117 000c 0948     		ldr	r0, .L152+4
 2118              	.LVL307:
 2119 000e FFF7FEFF 		bl	rt_assert_handler
 2120              	.LVL308:
 2121              	.L149:
 897:rt_thread/src/ipc.c ****     RT_ASSERT(rt_object_get_type(&mutex->parent.parent) == RT_Object_Class_Mutex);
 2122              		.loc 1 897 0 is_stmt 1
 2123 0012 2046     		mov	r0, r4
 2124 0014 FFF7FEFF 		bl	rt_object_get_type
 2125              	.LVL309:
 2126 0018 0328     		cmp	r0, #3
 2127 001a 05D0     		beq	.L150
 2128              		.loc 1 897 0 is_stmt 0 discriminator 1
 2129 001c 40F28132 		movw	r2, #897
 2130 0020 0349     		ldr	r1, .L152
 2131 0022 0548     		ldr	r0, .L152+8
 2132 0024 FFF7FEFF 		bl	rt_assert_handler
 2133              	.LVL310:
 2134              	.L150:
 898:rt_thread/src/ipc.c **** 
 899:rt_thread/src/ipc.c ****     return -RT_ERROR;
 900:rt_thread/src/ipc.c **** }
 2135              		.loc 1 900 0 is_stmt 1
 2136 0028 4FF0FF30 		mov	r0, #-1
 2137 002c 10BD     		pop	{r4, pc}
 2138              	.LVL311:
ARM GAS  /tmp/ccObKSes.s 			page 57


 2139              	.L153:
 2140 002e 00BF     		.align	2
 2141              	.L152:
 2142 0030 00000000 		.word	.LANCHOR13
 2143 0034 3C010000 		.word	.LC8
 2144 0038 50010000 		.word	.LC9
 2145              		.cfi_endproc
 2146              	.LFE33:
 2148              		.section	.text.rt_event_init,"ax",%progbits
 2149              		.align	2
 2150              		.global	rt_event_init
 2151              		.thumb
 2152              		.thumb_func
 2154              	rt_event_init:
 2155              	.LFB34:
 901:rt_thread/src/ipc.c **** RTM_EXPORT(rt_mutex_control);
 902:rt_thread/src/ipc.c **** #endif /* end of RT_USING_MUTEX */
 903:rt_thread/src/ipc.c **** 
 904:rt_thread/src/ipc.c **** #ifdef RT_USING_EVENT
 905:rt_thread/src/ipc.c **** /**
 906:rt_thread/src/ipc.c ****  * This function will initialize an event and put it under control of resource
 907:rt_thread/src/ipc.c ****  * management.
 908:rt_thread/src/ipc.c ****  *
 909:rt_thread/src/ipc.c ****  * @param event the event object
 910:rt_thread/src/ipc.c ****  * @param name the name of event
 911:rt_thread/src/ipc.c ****  * @param flag the flag of event
 912:rt_thread/src/ipc.c ****  *
 913:rt_thread/src/ipc.c ****  * @return the operation status, RT_EOK on successful
 914:rt_thread/src/ipc.c ****  */
 915:rt_thread/src/ipc.c **** rt_err_t rt_event_init(rt_event_t event, const char *name, rt_uint8_t flag)
 916:rt_thread/src/ipc.c **** {
 2156              		.loc 1 916 0
 2157              		.cfi_startproc
 2158              		@ args = 0, pretend = 0, frame = 0
 2159              		@ frame_needed = 0, uses_anonymous_args = 0
 2160              	.LVL312:
 2161 0000 70B5     		push	{r4, r5, r6, lr}
 2162              	.LCFI19:
 2163              		.cfi_def_cfa_offset 16
 2164              		.cfi_offset 4, -16
 2165              		.cfi_offset 5, -12
 2166              		.cfi_offset 6, -8
 2167              		.cfi_offset 14, -4
 2168 0002 0E46     		mov	r6, r1
 2169 0004 1546     		mov	r5, r2
 917:rt_thread/src/ipc.c ****     /* parameter check */
 918:rt_thread/src/ipc.c ****     RT_ASSERT(event != RT_NULL);
 2170              		.loc 1 918 0
 2171 0006 0446     		mov	r4, r0
 2172 0008 28B9     		cbnz	r0, .L155
 2173              		.loc 1 918 0 is_stmt 0 discriminator 1
 2174 000a 40F29632 		movw	r2, #918
 2175              	.LVL313:
 2176 000e 0849     		ldr	r1, .L157
 2177              	.LVL314:
 2178 0010 0848     		ldr	r0, .L157+4
 2179              	.LVL315:
ARM GAS  /tmp/ccObKSes.s 			page 58


 2180 0012 FFF7FEFF 		bl	rt_assert_handler
 2181              	.LVL316:
 2182              	.L155:
 919:rt_thread/src/ipc.c **** 
 920:rt_thread/src/ipc.c ****     /* initialize object */
 921:rt_thread/src/ipc.c ****     rt_object_init(&(event->parent.parent), RT_Object_Class_Event, name);
 2183              		.loc 1 921 0 is_stmt 1
 2184 0016 3246     		mov	r2, r6
 2185 0018 0421     		movs	r1, #4
 2186 001a 2046     		mov	r0, r4
 2187 001c FFF7FEFF 		bl	rt_object_init
 2188              	.LVL317:
 922:rt_thread/src/ipc.c **** 
 923:rt_thread/src/ipc.c ****     /* set parent flag */
 924:rt_thread/src/ipc.c ****     event->parent.parent.flag = flag;
 2189              		.loc 1 924 0
 2190 0020 6572     		strb	r5, [r4, #9]
 2191              	.LVL318:
 2192              	.LBB224:
 2193              	.LBB225:
  64:rt_thread/src/ipc.c **** 
 2194              		.loc 1 64 0
 2195 0022 04F11403 		add	r3, r4, #20
 2196              	.LVL319:
 2197              	.LBB226:
 2198              	.LBB227:
  49:rt_thread/include/rtservice.h **** }
 2199              		.loc 2 49 0
 2200 0026 A361     		str	r3, [r4, #24]
 2201 0028 6361     		str	r3, [r4, #20]
 2202              	.LVL320:
 2203              	.LBE227:
 2204              	.LBE226:
 2205              	.LBE225:
 2206              	.LBE224:
 925:rt_thread/src/ipc.c **** 
 926:rt_thread/src/ipc.c ****     /* initialize ipc object */
 927:rt_thread/src/ipc.c ****     rt_ipc_object_init(&(event->parent));
 928:rt_thread/src/ipc.c **** 
 929:rt_thread/src/ipc.c ****     /* initialize event */
 930:rt_thread/src/ipc.c ****     event->set = 0;
 2207              		.loc 1 930 0
 2208 002a 0020     		movs	r0, #0
 2209 002c E061     		str	r0, [r4, #28]
 931:rt_thread/src/ipc.c **** 
 932:rt_thread/src/ipc.c ****     return RT_EOK;
 933:rt_thread/src/ipc.c **** }
 2210              		.loc 1 933 0
 2211 002e 70BD     		pop	{r4, r5, r6, pc}
 2212              	.LVL321:
 2213              	.L158:
 2214              		.align	2
 2215              	.L157:
 2216 0030 00000000 		.word	.LANCHOR14
 2217 0034 08020000 		.word	.LC12
 2218              		.cfi_endproc
 2219              	.LFE34:
ARM GAS  /tmp/ccObKSes.s 			page 59


 2221              		.section	.text.rt_event_detach,"ax",%progbits
 2222              		.align	2
 2223              		.global	rt_event_detach
 2224              		.thumb
 2225              		.thumb_func
 2227              	rt_event_detach:
 2228              	.LFB35:
 934:rt_thread/src/ipc.c **** RTM_EXPORT(rt_event_init);
 935:rt_thread/src/ipc.c **** 
 936:rt_thread/src/ipc.c **** /**
 937:rt_thread/src/ipc.c ****  * This function will detach an event object from resource management
 938:rt_thread/src/ipc.c ****  *
 939:rt_thread/src/ipc.c ****  * @param event the event object
 940:rt_thread/src/ipc.c ****  *
 941:rt_thread/src/ipc.c ****  * @return the operation status, RT_EOK on successful
 942:rt_thread/src/ipc.c ****  */
 943:rt_thread/src/ipc.c **** rt_err_t rt_event_detach(rt_event_t event)
 944:rt_thread/src/ipc.c **** {
 2229              		.loc 1 944 0
 2230              		.cfi_startproc
 2231              		@ args = 0, pretend = 0, frame = 0
 2232              		@ frame_needed = 0, uses_anonymous_args = 0
 2233              	.LVL322:
 2234 0000 70B5     		push	{r4, r5, r6, lr}
 2235              	.LCFI20:
 2236              		.cfi_def_cfa_offset 16
 2237              		.cfi_offset 4, -16
 2238              		.cfi_offset 5, -12
 2239              		.cfi_offset 6, -8
 2240              		.cfi_offset 14, -4
 945:rt_thread/src/ipc.c ****     /* parameter check */
 946:rt_thread/src/ipc.c ****     RT_ASSERT(event != RT_NULL);
 2241              		.loc 1 946 0
 2242 0002 0646     		mov	r6, r0
 2243 0004 28B9     		cbnz	r0, .L160
 2244              		.loc 1 946 0 is_stmt 0 discriminator 1
 2245 0006 40F2B232 		movw	r2, #946
 2246 000a 1849     		ldr	r1, .L166
 2247 000c 1848     		ldr	r0, .L166+4
 2248              	.LVL323:
 2249 000e FFF7FEFF 		bl	rt_assert_handler
 2250              	.LVL324:
 2251              	.L160:
 947:rt_thread/src/ipc.c ****     RT_ASSERT(rt_object_get_type(&event->parent.parent) == RT_Object_Class_Event);
 2252              		.loc 1 947 0 is_stmt 1
 2253 0012 3046     		mov	r0, r6
 2254 0014 FFF7FEFF 		bl	rt_object_get_type
 2255              	.LVL325:
 2256 0018 0428     		cmp	r0, #4
 2257 001a 05D0     		beq	.L161
 2258              		.loc 1 947 0 is_stmt 0 discriminator 1
 2259 001c 40F2B332 		movw	r2, #947
 2260 0020 1249     		ldr	r1, .L166
 2261 0022 1448     		ldr	r0, .L166+8
 2262 0024 FFF7FEFF 		bl	rt_assert_handler
 2263              	.LVL326:
 2264              	.L161:
ARM GAS  /tmp/ccObKSes.s 			page 60


 948:rt_thread/src/ipc.c ****     RT_ASSERT(rt_object_is_systemobject(&event->parent.parent));
 2265              		.loc 1 948 0 is_stmt 1
 2266 0028 3046     		mov	r0, r6
 2267 002a FFF7FEFF 		bl	rt_object_is_systemobject
 2268              	.LVL327:
 2269 002e 28B9     		cbnz	r0, .L162
 2270              		.loc 1 948 0 is_stmt 0 discriminator 1
 2271 0030 4FF46D72 		mov	r2, #948
 2272 0034 0D49     		ldr	r1, .L166
 2273 0036 1048     		ldr	r0, .L166+12
 2274 0038 FFF7FEFF 		bl	rt_assert_handler
 2275              	.LVL328:
 2276              	.L162:
 949:rt_thread/src/ipc.c **** 
 950:rt_thread/src/ipc.c ****     /* resume all suspended thread */
 951:rt_thread/src/ipc.c ****     rt_ipc_list_resume_all(&(event->parent.suspend_thread));
 2277              		.loc 1 951 0 is_stmt 1
 2278 003c 06F11404 		add	r4, r6, #20
 2279              	.LVL329:
 2280 0040 0CE0     		b	.L163
 2281              	.L164:
 2282              	.LBB232:
 2283              	.LBB233:
 166:rt_thread/src/ipc.c **** 
 2284              		.loc 1 166 0
 2285 0042 FFF7FEFF 		bl	rt_hw_interrupt_disable
 2286              	.LVL330:
 2287 0046 0546     		mov	r5, r0
 2288              	.LVL331:
 169:rt_thread/src/ipc.c ****         /* set error code to RT_ERROR */
 2289              		.loc 1 169 0
 2290 0048 2068     		ldr	r0, [r4]
 2291              	.LVL332:
 171:rt_thread/src/ipc.c **** 
 2292              		.loc 1 171 0
 2293 004a 4FF0FF33 		mov	r3, #-1
 2294 004e C361     		str	r3, [r0, #28]
 178:rt_thread/src/ipc.c **** 
 2295              		.loc 1 178 0
 2296 0050 1438     		subs	r0, r0, #20
 2297              	.LVL333:
 2298 0052 FFF7FEFF 		bl	rt_thread_resume
 2299              	.LVL334:
 181:rt_thread/src/ipc.c ****     }
 2300              		.loc 1 181 0
 2301 0056 2846     		mov	r0, r5
 2302 0058 FFF7FEFF 		bl	rt_hw_interrupt_enable
 2303              	.LVL335:
 2304              	.L163:
 2305              	.LBB234:
 2306              	.LBB235:
 2307              		.loc 2 100 0
 2308 005c 2368     		ldr	r3, [r4]
 2309              	.LVL336:
 2310              	.LBE235:
 2311              	.LBE234:
 163:rt_thread/src/ipc.c ****     {
ARM GAS  /tmp/ccObKSes.s 			page 61


 2312              		.loc 1 163 0
 2313 005e 9C42     		cmp	r4, r3
 2314 0060 EFD1     		bne	.L164
 2315              	.LVL337:
 2316              	.LBE233:
 2317              	.LBE232:
 952:rt_thread/src/ipc.c **** 
 953:rt_thread/src/ipc.c ****     /* detach event object */
 954:rt_thread/src/ipc.c ****     rt_object_detach(&(event->parent.parent));
 2318              		.loc 1 954 0
 2319 0062 3046     		mov	r0, r6
 2320 0064 FFF7FEFF 		bl	rt_object_detach
 2321              	.LVL338:
 955:rt_thread/src/ipc.c **** 
 956:rt_thread/src/ipc.c ****     return RT_EOK;
 957:rt_thread/src/ipc.c **** }
 2322              		.loc 1 957 0
 2323 0068 0020     		movs	r0, #0
 2324 006a 70BD     		pop	{r4, r5, r6, pc}
 2325              	.LVL339:
 2326              	.L167:
 2327              		.align	2
 2328              	.L166:
 2329 006c 00000000 		.word	.LANCHOR15
 2330 0070 08020000 		.word	.LC12
 2331 0074 1C020000 		.word	.LC13
 2332 0078 60020000 		.word	.LC14
 2333              		.cfi_endproc
 2334              	.LFE35:
 2336              		.section	.text.rt_event_create,"ax",%progbits
 2337              		.align	2
 2338              		.global	rt_event_create
 2339              		.thumb
 2340              		.thumb_func
 2342              	rt_event_create:
 2343              	.LFB36:
 958:rt_thread/src/ipc.c **** RTM_EXPORT(rt_event_detach);
 959:rt_thread/src/ipc.c **** 
 960:rt_thread/src/ipc.c **** #ifdef RT_USING_HEAP
 961:rt_thread/src/ipc.c **** /**
 962:rt_thread/src/ipc.c ****  * This function will create an event object from system resource
 963:rt_thread/src/ipc.c ****  *
 964:rt_thread/src/ipc.c ****  * @param name the name of event
 965:rt_thread/src/ipc.c ****  * @param flag the flag of event
 966:rt_thread/src/ipc.c ****  *
 967:rt_thread/src/ipc.c ****  * @return the created event, RT_NULL on error happen
 968:rt_thread/src/ipc.c ****  */
 969:rt_thread/src/ipc.c **** rt_event_t rt_event_create(const char *name, rt_uint8_t flag)
 970:rt_thread/src/ipc.c **** {
 2344              		.loc 1 970 0
 2345              		.cfi_startproc
 2346              		@ args = 0, pretend = 0, frame = 0
 2347              		@ frame_needed = 0, uses_anonymous_args = 0
 2348              	.LVL340:
 2349 0000 F8B5     		push	{r3, r4, r5, r6, r7, lr}
 2350              	.LCFI21:
 2351              		.cfi_def_cfa_offset 24
ARM GAS  /tmp/ccObKSes.s 			page 62


 2352              		.cfi_offset 3, -24
 2353              		.cfi_offset 4, -20
 2354              		.cfi_offset 5, -16
 2355              		.cfi_offset 6, -12
 2356              		.cfi_offset 7, -8
 2357              		.cfi_offset 14, -4
 2358 0002 0446     		mov	r4, r0
 2359 0004 0E46     		mov	r6, r1
 2360              	.LBB236:
 971:rt_thread/src/ipc.c ****     rt_event_t event;
 972:rt_thread/src/ipc.c **** 
 973:rt_thread/src/ipc.c ****     RT_DEBUG_NOT_IN_INTERRUPT;
 2361              		.loc 1 973 0
 2362 0006 FFF7FEFF 		bl	rt_hw_interrupt_disable
 2363              	.LVL341:
 2364 000a 0546     		mov	r5, r0
 2365              	.LVL342:
 2366 000c FFF7FEFF 		bl	rt_interrupt_get_nest
 2367              	.LVL343:
 2368 0010 50B1     		cbz	r0, .L169
 2369              		.loc 1 973 0 is_stmt 0 discriminator 1
 2370 0012 0E4F     		ldr	r7, .L172
 2371 0014 3946     		mov	r1, r7
 2372 0016 0E48     		ldr	r0, .L172+4
 2373 0018 FFF7FEFF 		bl	rt_kprintf
 2374              	.LVL344:
 2375 001c 40F2CD32 		movw	r2, #973
 2376 0020 3946     		mov	r1, r7
 2377 0022 0C48     		ldr	r0, .L172+8
 2378 0024 FFF7FEFF 		bl	rt_assert_handler
 2379              	.LVL345:
 2380              	.L169:
 2381              		.loc 1 973 0 discriminator 5
 2382 0028 2846     		mov	r0, r5
 2383 002a FFF7FEFF 		bl	rt_hw_interrupt_enable
 2384              	.LVL346:
 2385              	.LBE236:
 974:rt_thread/src/ipc.c **** 
 975:rt_thread/src/ipc.c ****     /* allocate object */
 976:rt_thread/src/ipc.c ****     event = (rt_event_t)rt_object_allocate(RT_Object_Class_Event, name);
 2386              		.loc 1 976 0 is_stmt 1 discriminator 5
 2387 002e 2146     		mov	r1, r4
 2388 0030 0420     		movs	r0, #4
 2389 0032 FFF7FEFF 		bl	rt_object_allocate
 2390              	.LVL347:
 977:rt_thread/src/ipc.c ****     if (event == RT_NULL)
 2391              		.loc 1 977 0 discriminator 5
 2392 0036 0346     		mov	r3, r0
 2393 0038 30B1     		cbz	r0, .L170
 978:rt_thread/src/ipc.c ****         return event;
 979:rt_thread/src/ipc.c **** 
 980:rt_thread/src/ipc.c ****     /* set parent */
 981:rt_thread/src/ipc.c ****     event->parent.parent.flag = flag;
 2394              		.loc 1 981 0
 2395 003a 4672     		strb	r6, [r0, #9]
 2396              	.LVL348:
 2397              	.LBB237:
ARM GAS  /tmp/ccObKSes.s 			page 63


 2398              	.LBB238:
  64:rt_thread/src/ipc.c **** 
 2399              		.loc 1 64 0
 2400 003c 00F11402 		add	r2, r0, #20
 2401              	.LVL349:
 2402              	.LBB239:
 2403              	.LBB240:
  49:rt_thread/include/rtservice.h **** }
 2404              		.loc 2 49 0
 2405 0040 8261     		str	r2, [r0, #24]
 2406 0042 4261     		str	r2, [r0, #20]
 2407              	.LVL350:
 2408              	.LBE240:
 2409              	.LBE239:
 2410              	.LBE238:
 2411              	.LBE237:
 982:rt_thread/src/ipc.c **** 
 983:rt_thread/src/ipc.c ****     /* initialize ipc object */
 984:rt_thread/src/ipc.c ****     rt_ipc_object_init(&(event->parent));
 985:rt_thread/src/ipc.c **** 
 986:rt_thread/src/ipc.c ****     /* initialize event */
 987:rt_thread/src/ipc.c ****     event->set = 0;
 2412              		.loc 1 987 0
 2413 0044 0022     		movs	r2, #0
 2414 0046 C261     		str	r2, [r0, #28]
 2415              	.L170:
 988:rt_thread/src/ipc.c **** 
 989:rt_thread/src/ipc.c ****     return event;
 990:rt_thread/src/ipc.c **** }
 2416              		.loc 1 990 0
 2417 0048 1846     		mov	r0, r3
 2418              	.LVL351:
 2419 004a F8BD     		pop	{r3, r4, r5, r6, r7, pc}
 2420              	.LVL352:
 2421              	.L173:
 2422              		.align	2
 2423              	.L172:
 2424 004c 00000000 		.word	.LANCHOR16
 2425 0050 9C000000 		.word	.LC4
 2426 0054 C4000000 		.word	.LC5
 2427              		.cfi_endproc
 2428              	.LFE36:
 2430              		.section	.text.rt_event_delete,"ax",%progbits
 2431              		.align	2
 2432              		.global	rt_event_delete
 2433              		.thumb
 2434              		.thumb_func
 2436              	rt_event_delete:
 2437              	.LFB37:
 991:rt_thread/src/ipc.c **** RTM_EXPORT(rt_event_create);
 992:rt_thread/src/ipc.c **** 
 993:rt_thread/src/ipc.c **** /**
 994:rt_thread/src/ipc.c ****  * This function will delete an event object and release the memory
 995:rt_thread/src/ipc.c ****  *
 996:rt_thread/src/ipc.c ****  * @param event the event object
 997:rt_thread/src/ipc.c ****  *
 998:rt_thread/src/ipc.c ****  * @return the error code
ARM GAS  /tmp/ccObKSes.s 			page 64


 999:rt_thread/src/ipc.c ****  */
1000:rt_thread/src/ipc.c **** rt_err_t rt_event_delete(rt_event_t event)
1001:rt_thread/src/ipc.c **** {
 2438              		.loc 1 1001 0
 2439              		.cfi_startproc
 2440              		@ args = 0, pretend = 0, frame = 0
 2441              		@ frame_needed = 0, uses_anonymous_args = 0
 2442              	.LVL353:
 2443 0000 70B5     		push	{r4, r5, r6, lr}
 2444              	.LCFI22:
 2445              		.cfi_def_cfa_offset 16
 2446              		.cfi_offset 4, -16
 2447              		.cfi_offset 5, -12
 2448              		.cfi_offset 6, -8
 2449              		.cfi_offset 14, -4
1002:rt_thread/src/ipc.c ****     /* parameter check */
1003:rt_thread/src/ipc.c ****     RT_ASSERT(event != RT_NULL);
 2450              		.loc 1 1003 0
 2451 0002 0646     		mov	r6, r0
 2452 0004 28B9     		cbnz	r0, .L175
 2453              		.loc 1 1003 0 is_stmt 0 discriminator 1
 2454 0006 40F2EB32 		movw	r2, #1003
 2455 000a 2249     		ldr	r1, .L182
 2456 000c 2248     		ldr	r0, .L182+4
 2457              	.LVL354:
 2458 000e FFF7FEFF 		bl	rt_assert_handler
 2459              	.LVL355:
 2460              	.L175:
1004:rt_thread/src/ipc.c ****     RT_ASSERT(rt_object_get_type(&event->parent.parent) == RT_Object_Class_Event);
 2461              		.loc 1 1004 0 is_stmt 1
 2462 0012 3046     		mov	r0, r6
 2463 0014 FFF7FEFF 		bl	rt_object_get_type
 2464              	.LVL356:
 2465 0018 0428     		cmp	r0, #4
 2466 001a 05D0     		beq	.L176
 2467              		.loc 1 1004 0 is_stmt 0 discriminator 1
 2468 001c 4FF47B72 		mov	r2, #1004
 2469 0020 1C49     		ldr	r1, .L182
 2470 0022 1E48     		ldr	r0, .L182+8
 2471 0024 FFF7FEFF 		bl	rt_assert_handler
 2472              	.LVL357:
 2473              	.L176:
1005:rt_thread/src/ipc.c ****     RT_ASSERT(rt_object_is_systemobject(&event->parent.parent) == RT_FALSE);
 2474              		.loc 1 1005 0 is_stmt 1
 2475 0028 3046     		mov	r0, r6
 2476 002a FFF7FEFF 		bl	rt_object_is_systemobject
 2477              	.LVL358:
 2478 002e 28B1     		cbz	r0, .L177
 2479              		.loc 1 1005 0 is_stmt 0 discriminator 1
 2480 0030 40F2ED32 		movw	r2, #1005
 2481 0034 1749     		ldr	r1, .L182
 2482 0036 1A48     		ldr	r0, .L182+12
 2483 0038 FFF7FEFF 		bl	rt_assert_handler
 2484              	.LVL359:
 2485              	.L177:
 2486              	.LBB246:
1006:rt_thread/src/ipc.c **** 
ARM GAS  /tmp/ccObKSes.s 			page 65


1007:rt_thread/src/ipc.c ****     RT_DEBUG_NOT_IN_INTERRUPT;
 2487              		.loc 1 1007 0 is_stmt 1
 2488 003c FFF7FEFF 		bl	rt_hw_interrupt_disable
 2489              	.LVL360:
 2490 0040 0446     		mov	r4, r0
 2491              	.LVL361:
 2492 0042 FFF7FEFF 		bl	rt_interrupt_get_nest
 2493              	.LVL362:
 2494 0046 50B1     		cbz	r0, .L178
 2495              		.loc 1 1007 0 is_stmt 0 discriminator 1
 2496 0048 124D     		ldr	r5, .L182
 2497 004a 2946     		mov	r1, r5
 2498 004c 1548     		ldr	r0, .L182+16
 2499 004e FFF7FEFF 		bl	rt_kprintf
 2500              	.LVL363:
 2501 0052 40F2EF32 		movw	r2, #1007
 2502 0056 2946     		mov	r1, r5
 2503 0058 1348     		ldr	r0, .L182+20
 2504 005a FFF7FEFF 		bl	rt_assert_handler
 2505              	.LVL364:
 2506              	.L178:
 2507              		.loc 1 1007 0 discriminator 5
 2508 005e 2046     		mov	r0, r4
 2509 0060 FFF7FEFF 		bl	rt_hw_interrupt_enable
 2510              	.LVL365:
 2511              	.LBE246:
1008:rt_thread/src/ipc.c **** 
1009:rt_thread/src/ipc.c ****     /* resume all suspended thread */
1010:rt_thread/src/ipc.c ****     rt_ipc_list_resume_all(&(event->parent.suspend_thread));
 2512              		.loc 1 1010 0 is_stmt 1 discriminator 5
 2513 0064 06F11404 		add	r4, r6, #20
 2514              	.LVL366:
 2515 0068 0CE0     		b	.L179
 2516              	.L180:
 2517              	.LBB247:
 2518              	.LBB248:
 166:rt_thread/src/ipc.c **** 
 2519              		.loc 1 166 0
 2520 006a FFF7FEFF 		bl	rt_hw_interrupt_disable
 2521              	.LVL367:
 2522 006e 0546     		mov	r5, r0
 2523              	.LVL368:
 169:rt_thread/src/ipc.c ****         /* set error code to RT_ERROR */
 2524              		.loc 1 169 0
 2525 0070 2068     		ldr	r0, [r4]
 2526              	.LVL369:
 171:rt_thread/src/ipc.c **** 
 2527              		.loc 1 171 0
 2528 0072 4FF0FF33 		mov	r3, #-1
 2529 0076 C361     		str	r3, [r0, #28]
 178:rt_thread/src/ipc.c **** 
 2530              		.loc 1 178 0
 2531 0078 1438     		subs	r0, r0, #20
 2532              	.LVL370:
 2533 007a FFF7FEFF 		bl	rt_thread_resume
 2534              	.LVL371:
 181:rt_thread/src/ipc.c ****     }
ARM GAS  /tmp/ccObKSes.s 			page 66


 2535              		.loc 1 181 0
 2536 007e 2846     		mov	r0, r5
 2537 0080 FFF7FEFF 		bl	rt_hw_interrupt_enable
 2538              	.LVL372:
 2539              	.L179:
 2540              	.LBB249:
 2541              	.LBB250:
 2542              		.loc 2 100 0
 2543 0084 2368     		ldr	r3, [r4]
 2544              	.LVL373:
 2545              	.LBE250:
 2546              	.LBE249:
 163:rt_thread/src/ipc.c ****     {
 2547              		.loc 1 163 0
 2548 0086 9C42     		cmp	r4, r3
 2549 0088 EFD1     		bne	.L180
 2550              	.LVL374:
 2551              	.LBE248:
 2552              	.LBE247:
1011:rt_thread/src/ipc.c **** 
1012:rt_thread/src/ipc.c ****     /* delete event object */
1013:rt_thread/src/ipc.c ****     rt_object_delete(&(event->parent.parent));
 2553              		.loc 1 1013 0
 2554 008a 3046     		mov	r0, r6
 2555 008c FFF7FEFF 		bl	rt_object_delete
 2556              	.LVL375:
1014:rt_thread/src/ipc.c **** 
1015:rt_thread/src/ipc.c ****     return RT_EOK;
1016:rt_thread/src/ipc.c **** }
 2557              		.loc 1 1016 0
 2558 0090 0020     		movs	r0, #0
 2559 0092 70BD     		pop	{r4, r5, r6, pc}
 2560              	.LVL376:
 2561              	.L183:
 2562              		.align	2
 2563              	.L182:
 2564 0094 00000000 		.word	.LANCHOR17
 2565 0098 08020000 		.word	.LC12
 2566 009c 1C020000 		.word	.LC13
 2567 00a0 94020000 		.word	.LC15
 2568 00a4 9C000000 		.word	.LC4
 2569 00a8 C4000000 		.word	.LC5
 2570              		.cfi_endproc
 2571              	.LFE37:
 2573              		.section	.text.rt_event_send,"ax",%progbits
 2574              		.align	2
 2575              		.global	rt_event_send
 2576              		.thumb
 2577              		.thumb_func
 2579              	rt_event_send:
 2580              	.LFB38:
1017:rt_thread/src/ipc.c **** RTM_EXPORT(rt_event_delete);
1018:rt_thread/src/ipc.c **** #endif
1019:rt_thread/src/ipc.c **** 
1020:rt_thread/src/ipc.c **** /**
1021:rt_thread/src/ipc.c ****  * This function will send an event to the event object, if there are threads
1022:rt_thread/src/ipc.c ****  * suspended on event object, it will be waked up.
ARM GAS  /tmp/ccObKSes.s 			page 67


1023:rt_thread/src/ipc.c ****  *
1024:rt_thread/src/ipc.c ****  * @param event the event object
1025:rt_thread/src/ipc.c ****  * @param set the event set
1026:rt_thread/src/ipc.c ****  *
1027:rt_thread/src/ipc.c ****  * @return the error code
1028:rt_thread/src/ipc.c ****  */
1029:rt_thread/src/ipc.c **** rt_err_t rt_event_send(rt_event_t event, rt_uint32_t set)
1030:rt_thread/src/ipc.c **** {
 2581              		.loc 1 1030 0
 2582              		.cfi_startproc
 2583              		@ args = 0, pretend = 0, frame = 0
 2584              		@ frame_needed = 0, uses_anonymous_args = 0
 2585              	.LVL377:
 2586 0000 2DE9F041 		push	{r4, r5, r6, r7, r8, lr}
 2587              	.LCFI23:
 2588              		.cfi_def_cfa_offset 24
 2589              		.cfi_offset 4, -24
 2590              		.cfi_offset 5, -20
 2591              		.cfi_offset 6, -16
 2592              		.cfi_offset 7, -12
 2593              		.cfi_offset 8, -8
 2594              		.cfi_offset 14, -4
 2595 0004 0D46     		mov	r5, r1
1031:rt_thread/src/ipc.c ****     struct rt_list_node *n;
1032:rt_thread/src/ipc.c ****     struct rt_thread *thread;
1033:rt_thread/src/ipc.c ****     register rt_ubase_t level;
1034:rt_thread/src/ipc.c ****     register rt_base_t status;
1035:rt_thread/src/ipc.c ****     rt_bool_t need_schedule;
1036:rt_thread/src/ipc.c **** 
1037:rt_thread/src/ipc.c ****     /* parameter check */
1038:rt_thread/src/ipc.c ****     RT_ASSERT(event != RT_NULL);
 2596              		.loc 1 1038 0
 2597 0006 0446     		mov	r4, r0
 2598 0008 28B9     		cbnz	r0, .L185
 2599              		.loc 1 1038 0 is_stmt 0 discriminator 1
 2600 000a 40F20E42 		movw	r2, #1038
 2601 000e 3249     		ldr	r1, .L203
 2602              	.LVL378:
 2603 0010 3248     		ldr	r0, .L203+4
 2604              	.LVL379:
 2605 0012 FFF7FEFF 		bl	rt_assert_handler
 2606              	.LVL380:
 2607              	.L185:
1039:rt_thread/src/ipc.c ****     RT_ASSERT(rt_object_get_type(&event->parent.parent) == RT_Object_Class_Event);
 2608              		.loc 1 1039 0 is_stmt 1
 2609 0016 2046     		mov	r0, r4
 2610 0018 FFF7FEFF 		bl	rt_object_get_type
 2611              	.LVL381:
 2612 001c 0428     		cmp	r0, #4
 2613 001e 05D0     		beq	.L186
 2614              		.loc 1 1039 0 is_stmt 0 discriminator 1
 2615 0020 40F20F42 		movw	r2, #1039
 2616 0024 2C49     		ldr	r1, .L203
 2617 0026 2E48     		ldr	r0, .L203+8
 2618 0028 FFF7FEFF 		bl	rt_assert_handler
 2619              	.LVL382:
 2620              	.L186:
ARM GAS  /tmp/ccObKSes.s 			page 68


1040:rt_thread/src/ipc.c **** 
1041:rt_thread/src/ipc.c ****     if (set == 0)
 2621              		.loc 1 1041 0 is_stmt 1
 2622 002c 002D     		cmp	r5, #0
 2623 002e 4BD0     		beq	.L196
 2624              	.LVL383:
1042:rt_thread/src/ipc.c ****         return -RT_ERROR;
1043:rt_thread/src/ipc.c **** 
1044:rt_thread/src/ipc.c ****     need_schedule = RT_FALSE;
1045:rt_thread/src/ipc.c **** 
1046:rt_thread/src/ipc.c ****     /* disable interrupt */
1047:rt_thread/src/ipc.c ****     level = rt_hw_interrupt_disable();
 2625              		.loc 1 1047 0
 2626 0030 FFF7FEFF 		bl	rt_hw_interrupt_disable
 2627              	.LVL384:
 2628 0034 8046     		mov	r8, r0
 2629              	.LVL385:
1048:rt_thread/src/ipc.c **** 
1049:rt_thread/src/ipc.c ****     /* set event */
1050:rt_thread/src/ipc.c ****     event->set |= set;
 2630              		.loc 1 1050 0
 2631 0036 E369     		ldr	r3, [r4, #28]
 2632 0038 1D43     		orrs	r5, r5, r3
 2633              	.LVL386:
 2634 003a E561     		str	r5, [r4, #28]
1051:rt_thread/src/ipc.c **** 
1052:rt_thread/src/ipc.c ****     RT_OBJECT_HOOK_CALL(rt_object_put_hook, (&(event->parent.parent)));
 2635              		.loc 1 1052 0
 2636 003c 294B     		ldr	r3, .L203+12
 2637 003e 1B68     		ldr	r3, [r3]
 2638 0040 0BB1     		cbz	r3, .L188
 2639              		.loc 1 1052 0 is_stmt 0 discriminator 1
 2640 0042 2046     		mov	r0, r4
 2641              	.LVL387:
 2642 0044 9847     		blx	r3
 2643              	.LVL388:
 2644              	.L188:
1053:rt_thread/src/ipc.c **** 
1054:rt_thread/src/ipc.c ****     if (!rt_list_isempty(&event->parent.suspend_thread))
 2645              		.loc 1 1054 0 is_stmt 1
 2646 0046 04F11406 		add	r6, r4, #20
 2647              	.LVL389:
 2648              	.LBB251:
 2649              	.LBB252:
 2650              		.loc 2 100 0
 2651 004a 6369     		ldr	r3, [r4, #20]
 2652              	.LVL390:
 2653              	.LBE252:
 2654              	.LBE251:
 2655              		.loc 1 1054 0
 2656 004c 9E42     		cmp	r6, r3
 2657 004e 2FD1     		bne	.L197
1044:rt_thread/src/ipc.c **** 
 2658              		.loc 1 1044 0
 2659 0050 0027     		movs	r7, #0
 2660 0052 30E0     		b	.L190
 2661              	.LVL391:
ARM GAS  /tmp/ccObKSes.s 			page 69


 2662              	.L195:
1055:rt_thread/src/ipc.c ****     {
1056:rt_thread/src/ipc.c ****         /* search thread list to resume thread */
1057:rt_thread/src/ipc.c ****         n = event->parent.suspend_thread.next;
1058:rt_thread/src/ipc.c ****         while (n != &(event->parent.suspend_thread))
1059:rt_thread/src/ipc.c ****         {
1060:rt_thread/src/ipc.c ****             /* get thread */
1061:rt_thread/src/ipc.c ****             thread = rt_list_entry(n, struct rt_thread, tlist);
 2663              		.loc 1 1061 0
 2664 0054 A3F11400 		sub	r0, r3, #20
 2665              	.LVL392:
1062:rt_thread/src/ipc.c **** 
1063:rt_thread/src/ipc.c ****             status = -RT_ERROR;
1064:rt_thread/src/ipc.c ****             if (thread->event_info & RT_EVENT_FLAG_AND)
 2666              		.loc 1 1064 0
 2667 0058 93F82C20 		ldrb	r2, [r3, #44]	@ zero_extendqisi2
 2668 005c 12F0010F 		tst	r2, #1
 2669 0060 06D0     		beq	.L191
1065:rt_thread/src/ipc.c ****             {
1066:rt_thread/src/ipc.c ****                 if ((thread->event_set & event->set) == thread->event_set)
 2670              		.loc 1 1066 0
 2671 0062 996A     		ldr	r1, [r3, #40]
 2672 0064 E569     		ldr	r5, [r4, #28]
 2673 0066 A943     		bics	r1, r1, r5
 2674 0068 0CD0     		beq	.L198
1063:rt_thread/src/ipc.c ****             if (thread->event_info & RT_EVENT_FLAG_AND)
 2675              		.loc 1 1063 0
 2676 006a 4FF0FF31 		mov	r1, #-1
 2677 006e 10E0     		b	.L192
 2678              	.L191:
1067:rt_thread/src/ipc.c ****                 {
1068:rt_thread/src/ipc.c ****                     /* received an AND event */
1069:rt_thread/src/ipc.c ****                     status = RT_EOK;
1070:rt_thread/src/ipc.c ****                 }
1071:rt_thread/src/ipc.c ****             }
1072:rt_thread/src/ipc.c ****             else if (thread->event_info & RT_EVENT_FLAG_OR)
 2679              		.loc 1 1072 0
 2680 0070 12F0020F 		tst	r2, #2
 2681 0074 08D0     		beq	.L199
1073:rt_thread/src/ipc.c ****             {
1074:rt_thread/src/ipc.c ****                 if (thread->event_set & event->set)
 2682              		.loc 1 1074 0
 2683 0076 996A     		ldr	r1, [r3, #40]
 2684 0078 E569     		ldr	r5, [r4, #28]
 2685 007a 2940     		ands	r1, r1, r5
 2686 007c 07D0     		beq	.L200
1075:rt_thread/src/ipc.c ****                 {
1076:rt_thread/src/ipc.c ****                     /* save the received event set */
1077:rt_thread/src/ipc.c ****                     thread->event_set = thread->event_set & event->set;
 2687              		.loc 1 1077 0
 2688 007e 9962     		str	r1, [r3, #40]
 2689              	.LVL393:
1078:rt_thread/src/ipc.c **** 
1079:rt_thread/src/ipc.c ****                     /* received an OR event */
1080:rt_thread/src/ipc.c ****                     status = RT_EOK;
 2690              		.loc 1 1080 0
 2691 0080 0021     		movs	r1, #0
ARM GAS  /tmp/ccObKSes.s 			page 70


 2692 0082 06E0     		b	.L192
 2693              	.LVL394:
 2694              	.L198:
1069:rt_thread/src/ipc.c ****                 }
 2695              		.loc 1 1069 0
 2696 0084 0021     		movs	r1, #0
 2697 0086 04E0     		b	.L192
 2698              	.L199:
1063:rt_thread/src/ipc.c ****             if (thread->event_info & RT_EVENT_FLAG_AND)
 2699              		.loc 1 1063 0
 2700 0088 4FF0FF31 		mov	r1, #-1
 2701 008c 01E0     		b	.L192
 2702              	.L200:
 2703 008e 4FF0FF31 		mov	r1, #-1
 2704              	.LVL395:
 2705              	.L192:
1081:rt_thread/src/ipc.c ****                 }
1082:rt_thread/src/ipc.c ****             }
1083:rt_thread/src/ipc.c **** 
1084:rt_thread/src/ipc.c ****             /* move node to the next */
1085:rt_thread/src/ipc.c ****             n = n->next;
 2706              		.loc 1 1085 0
 2707 0092 1D68     		ldr	r5, [r3]
 2708              	.LVL396:
1086:rt_thread/src/ipc.c **** 
1087:rt_thread/src/ipc.c ****             /* condition is satisfied, resume thread */
1088:rt_thread/src/ipc.c ****             if (status == RT_EOK)
 2709              		.loc 1 1088 0
 2710 0094 51B9     		cbnz	r1, .L193
1089:rt_thread/src/ipc.c ****             {
1090:rt_thread/src/ipc.c ****                 /* clear event */
1091:rt_thread/src/ipc.c ****                 if (thread->event_info & RT_EVENT_FLAG_CLEAR)
 2711              		.loc 1 1091 0
 2712 0096 12F0040F 		tst	r2, #4
 2713 009a 04D0     		beq	.L194
1092:rt_thread/src/ipc.c ****                     event->set &= ~thread->event_set;
 2714              		.loc 1 1092 0
 2715 009c 9A6A     		ldr	r2, [r3, #40]
 2716 009e E369     		ldr	r3, [r4, #28]
 2717 00a0 23EA0203 		bic	r3, r3, r2
 2718 00a4 E361     		str	r3, [r4, #28]
 2719              	.L194:
1093:rt_thread/src/ipc.c **** 
1094:rt_thread/src/ipc.c ****                 /* resume thread, and thread list breaks out */
1095:rt_thread/src/ipc.c ****                 rt_thread_resume(thread);
 2720              		.loc 1 1095 0
 2721 00a6 FFF7FEFF 		bl	rt_thread_resume
 2722              	.LVL397:
1096:rt_thread/src/ipc.c **** 
1097:rt_thread/src/ipc.c ****                 /* need do a scheduling */
1098:rt_thread/src/ipc.c ****                 need_schedule = RT_TRUE;
 2723              		.loc 1 1098 0
 2724 00aa 0127     		movs	r7, #1
 2725              	.LVL398:
 2726              	.L193:
 2727 00ac 2B46     		mov	r3, r5
 2728 00ae 00E0     		b	.L189
ARM GAS  /tmp/ccObKSes.s 			page 71


 2729              	.LVL399:
 2730              	.L197:
 2731 00b0 0027     		movs	r7, #0
 2732              	.LVL400:
 2733              	.L189:
1058:rt_thread/src/ipc.c ****         {
 2734              		.loc 1 1058 0
 2735 00b2 B342     		cmp	r3, r6
 2736 00b4 CED1     		bne	.L195
 2737              	.LVL401:
 2738              	.L190:
1099:rt_thread/src/ipc.c ****             }
1100:rt_thread/src/ipc.c ****         }
1101:rt_thread/src/ipc.c ****     }
1102:rt_thread/src/ipc.c **** 
1103:rt_thread/src/ipc.c ****     /* enable interrupt */
1104:rt_thread/src/ipc.c ****     rt_hw_interrupt_enable(level);
 2739              		.loc 1 1104 0
 2740 00b6 4046     		mov	r0, r8
 2741 00b8 FFF7FEFF 		bl	rt_hw_interrupt_enable
 2742              	.LVL402:
1105:rt_thread/src/ipc.c **** 
1106:rt_thread/src/ipc.c ****     /* do a schedule */
1107:rt_thread/src/ipc.c ****     if (need_schedule == RT_TRUE)
 2743              		.loc 1 1107 0
 2744 00bc 47B1     		cbz	r7, .L201
1108:rt_thread/src/ipc.c ****         rt_schedule();
 2745              		.loc 1 1108 0
 2746 00be FFF7FEFF 		bl	rt_schedule
 2747              	.LVL403:
1109:rt_thread/src/ipc.c **** 
1110:rt_thread/src/ipc.c ****     return RT_EOK;
 2748              		.loc 1 1110 0
 2749 00c2 0020     		movs	r0, #0
 2750 00c4 BDE8F081 		pop	{r4, r5, r6, r7, r8, pc}
 2751              	.LVL404:
 2752              	.L196:
1042:rt_thread/src/ipc.c **** 
 2753              		.loc 1 1042 0
 2754 00c8 4FF0FF30 		mov	r0, #-1
 2755 00cc BDE8F081 		pop	{r4, r5, r6, r7, r8, pc}
 2756              	.LVL405:
 2757              	.L201:
 2758              		.loc 1 1110 0
 2759 00d0 0020     		movs	r0, #0
1111:rt_thread/src/ipc.c **** }
 2760              		.loc 1 1111 0
 2761 00d2 BDE8F081 		pop	{r4, r5, r6, r7, r8, pc}
 2762              	.LVL406:
 2763              	.L204:
 2764 00d6 00BF     		.align	2
 2765              	.L203:
 2766 00d8 00000000 		.word	.LANCHOR18
 2767 00dc 08020000 		.word	.LC12
 2768 00e0 1C020000 		.word	.LC13
 2769 00e4 00000000 		.word	rt_object_put_hook
 2770              		.cfi_endproc
ARM GAS  /tmp/ccObKSes.s 			page 72


 2771              	.LFE38:
 2773              		.section	.text.rt_event_recv,"ax",%progbits
 2774              		.align	2
 2775              		.global	rt_event_recv
 2776              		.thumb
 2777              		.thumb_func
 2779              	rt_event_recv:
 2780              	.LFB39:
1112:rt_thread/src/ipc.c **** RTM_EXPORT(rt_event_send);
1113:rt_thread/src/ipc.c **** 
1114:rt_thread/src/ipc.c **** /**
1115:rt_thread/src/ipc.c ****  * This function will receive an event from event object, if the event is
1116:rt_thread/src/ipc.c ****  * unavailable, the thread shall wait for a specified time.
1117:rt_thread/src/ipc.c ****  *
1118:rt_thread/src/ipc.c ****  * @param event the fast event object
1119:rt_thread/src/ipc.c ****  * @param set the interested event set
1120:rt_thread/src/ipc.c ****  * @param option the receive option, either RT_EVENT_FLAG_AND or
1121:rt_thread/src/ipc.c ****  *        RT_EVENT_FLAG_OR should be set.
1122:rt_thread/src/ipc.c ****  * @param timeout the waiting time
1123:rt_thread/src/ipc.c ****  * @param recved the received event, if you don't care, RT_NULL can be set.
1124:rt_thread/src/ipc.c ****  *
1125:rt_thread/src/ipc.c ****  * @return the error code
1126:rt_thread/src/ipc.c ****  */
1127:rt_thread/src/ipc.c **** rt_err_t rt_event_recv(rt_event_t   event,
1128:rt_thread/src/ipc.c ****                        rt_uint32_t  set,
1129:rt_thread/src/ipc.c ****                        rt_uint8_t   option,
1130:rt_thread/src/ipc.c ****                        rt_int32_t   timeout,
1131:rt_thread/src/ipc.c ****                        rt_uint32_t *recved)
1132:rt_thread/src/ipc.c **** {
 2781              		.loc 1 1132 0
 2782              		.cfi_startproc
 2783              		@ args = 4, pretend = 0, frame = 8
 2784              		@ frame_needed = 0, uses_anonymous_args = 0
 2785              	.LVL407:
 2786 0000 2DE9F043 		push	{r4, r5, r6, r7, r8, r9, lr}
 2787              	.LCFI24:
 2788              		.cfi_def_cfa_offset 28
 2789              		.cfi_offset 4, -28
 2790              		.cfi_offset 5, -24
 2791              		.cfi_offset 6, -20
 2792              		.cfi_offset 7, -16
 2793              		.cfi_offset 8, -12
 2794              		.cfi_offset 9, -8
 2795              		.cfi_offset 14, -4
 2796 0004 83B0     		sub	sp, sp, #12
 2797              	.LCFI25:
 2798              		.cfi_def_cfa_offset 40
 2799 0006 0446     		mov	r4, r0
 2800 0008 0E46     		mov	r6, r1
 2801 000a 1746     		mov	r7, r2
 2802 000c 0193     		str	r3, [sp, #4]
 2803              	.LBB264:
1133:rt_thread/src/ipc.c ****     struct rt_thread *thread;
1134:rt_thread/src/ipc.c ****     register rt_ubase_t level;
1135:rt_thread/src/ipc.c ****     register rt_base_t status;
1136:rt_thread/src/ipc.c **** 
1137:rt_thread/src/ipc.c ****     RT_DEBUG_IN_THREAD_CONTEXT;
ARM GAS  /tmp/ccObKSes.s 			page 73


 2804              		.loc 1 1137 0
 2805 000e FFF7FEFF 		bl	rt_hw_interrupt_disable
 2806              	.LVL408:
 2807 0012 0546     		mov	r5, r0
 2808              	.LVL409:
 2809 0014 FFF7FEFF 		bl	rt_thread_self
 2810              	.LVL410:
 2811 0018 58B9     		cbnz	r0, .L206
 2812              		.loc 1 1137 0 is_stmt 0 discriminator 1
 2813 001a DFF8C081 		ldr	r8, .L232+12
 2814 001e 4146     		mov	r1, r8
 2815 0020 6B48     		ldr	r0, .L232
 2816 0022 FFF7FEFF 		bl	rt_kprintf
 2817              	.LVL411:
 2818 0026 40F27142 		movw	r2, #1137
 2819 002a 4146     		mov	r1, r8
 2820 002c 6948     		ldr	r0, .L232+4
 2821 002e FFF7FEFF 		bl	rt_assert_handler
 2822              	.LVL412:
 2823              	.L206:
 2824              	.LBB265:
 2825              		.loc 1 1137 0 discriminator 5
 2826 0032 FFF7FEFF 		bl	rt_hw_interrupt_disable
 2827              	.LVL413:
 2828 0036 8046     		mov	r8, r0
 2829              	.LVL414:
 2830 0038 FFF7FEFF 		bl	rt_interrupt_get_nest
 2831              	.LVL415:
 2832 003c 58B1     		cbz	r0, .L207
 2833              		.loc 1 1137 0 discriminator 6
 2834 003e DFF89C91 		ldr	r9, .L232+12
 2835 0042 4946     		mov	r1, r9
 2836 0044 6448     		ldr	r0, .L232+8
 2837 0046 FFF7FEFF 		bl	rt_kprintf
 2838              	.LVL416:
 2839 004a 40F27142 		movw	r2, #1137
 2840 004e 4946     		mov	r1, r9
 2841 0050 6048     		ldr	r0, .L232+4
 2842 0052 FFF7FEFF 		bl	rt_assert_handler
 2843              	.LVL417:
 2844              	.L207:
 2845              		.loc 1 1137 0 discriminator 10
 2846 0056 4046     		mov	r0, r8
 2847 0058 FFF7FEFF 		bl	rt_hw_interrupt_enable
 2848              	.LVL418:
 2849              	.LBE265:
 2850 005c 2846     		mov	r0, r5
 2851 005e FFF7FEFF 		bl	rt_hw_interrupt_enable
 2852              	.LVL419:
 2853              	.LBE264:
1138:rt_thread/src/ipc.c **** 
1139:rt_thread/src/ipc.c ****     /* parameter check */
1140:rt_thread/src/ipc.c ****     RT_ASSERT(event != RT_NULL);
 2854              		.loc 1 1140 0 is_stmt 1 discriminator 10
 2855 0062 2CB9     		cbnz	r4, .L208
 2856              		.loc 1 1140 0 is_stmt 0 discriminator 1
 2857 0064 40F27442 		movw	r2, #1140
ARM GAS  /tmp/ccObKSes.s 			page 74


 2858 0068 5C49     		ldr	r1, .L232+12
 2859 006a 5D48     		ldr	r0, .L232+16
 2860 006c FFF7FEFF 		bl	rt_assert_handler
 2861              	.LVL420:
 2862              	.L208:
1141:rt_thread/src/ipc.c ****     RT_ASSERT(rt_object_get_type(&event->parent.parent) == RT_Object_Class_Event);
 2863              		.loc 1 1141 0 is_stmt 1
 2864 0070 2046     		mov	r0, r4
 2865 0072 FFF7FEFF 		bl	rt_object_get_type
 2866              	.LVL421:
 2867 0076 0428     		cmp	r0, #4
 2868 0078 05D0     		beq	.L209
 2869              		.loc 1 1141 0 is_stmt 0 discriminator 1
 2870 007a 40F27542 		movw	r2, #1141
 2871 007e 5749     		ldr	r1, .L232+12
 2872 0080 5848     		ldr	r0, .L232+20
 2873 0082 FFF7FEFF 		bl	rt_assert_handler
 2874              	.LVL422:
 2875              	.L209:
1142:rt_thread/src/ipc.c **** 
1143:rt_thread/src/ipc.c ****     if (set == 0)
 2876              		.loc 1 1143 0 is_stmt 1
 2877 0086 002E     		cmp	r6, #0
 2878 0088 00F09C80 		beq	.L228
 2879              	.LVL423:
1144:rt_thread/src/ipc.c ****         return -RT_ERROR;
1145:rt_thread/src/ipc.c **** 
1146:rt_thread/src/ipc.c ****     /* initialize status */
1147:rt_thread/src/ipc.c ****     status = -RT_ERROR;
1148:rt_thread/src/ipc.c ****     /* get current thread */
1149:rt_thread/src/ipc.c ****     thread = rt_thread_self();
 2880              		.loc 1 1149 0
 2881 008c FFF7FEFF 		bl	rt_thread_self
 2882              	.LVL424:
 2883 0090 0546     		mov	r5, r0
 2884              	.LVL425:
1150:rt_thread/src/ipc.c ****     /* reset thread error */
1151:rt_thread/src/ipc.c ****     thread->error = RT_EOK;
 2885              		.loc 1 1151 0
 2886 0092 0023     		movs	r3, #0
 2887 0094 0363     		str	r3, [r0, #48]
1152:rt_thread/src/ipc.c **** 
1153:rt_thread/src/ipc.c ****     RT_OBJECT_HOOK_CALL(rt_object_trytake_hook, (&(event->parent.parent)));
 2888              		.loc 1 1153 0
 2889 0096 544B     		ldr	r3, .L232+24
 2890 0098 1B68     		ldr	r3, [r3]
 2891 009a 0BB1     		cbz	r3, .L211
 2892              		.loc 1 1153 0 is_stmt 0 discriminator 1
 2893 009c 2046     		mov	r0, r4
 2894              	.LVL426:
 2895 009e 9847     		blx	r3
 2896              	.LVL427:
 2897              	.L211:
1154:rt_thread/src/ipc.c **** 
1155:rt_thread/src/ipc.c ****     /* disable interrupt */
1156:rt_thread/src/ipc.c ****     level = rt_hw_interrupt_disable();
 2898              		.loc 1 1156 0 is_stmt 1
ARM GAS  /tmp/ccObKSes.s 			page 75


 2899 00a0 FFF7FEFF 		bl	rt_hw_interrupt_disable
 2900              	.LVL428:
 2901 00a4 8046     		mov	r8, r0
 2902              	.LVL429:
 2903 00a6 8146     		mov	r9, r0
 2904              	.LVL430:
1157:rt_thread/src/ipc.c **** 
1158:rt_thread/src/ipc.c ****     /* check event set */
1159:rt_thread/src/ipc.c ****     if (option & RT_EVENT_FLAG_AND)
 2905              		.loc 1 1159 0
 2906 00a8 17F0010F 		tst	r7, #1
 2907 00ac 06D0     		beq	.L212
1160:rt_thread/src/ipc.c ****     {
1161:rt_thread/src/ipc.c ****         if ((event->set & set) == set)
 2908              		.loc 1 1161 0
 2909 00ae E369     		ldr	r3, [r4, #28]
 2910 00b0 36EA0303 		bics	r3, r6, r3
 2911 00b4 14D0     		beq	.L229
1147:rt_thread/src/ipc.c ****     /* get current thread */
 2912              		.loc 1 1147 0
 2913 00b6 4FF0FF33 		mov	r3, #-1
 2914 00ba 14E0     		b	.L213
 2915              	.L212:
1162:rt_thread/src/ipc.c ****             status = RT_EOK;
1163:rt_thread/src/ipc.c ****     }
1164:rt_thread/src/ipc.c ****     else if (option & RT_EVENT_FLAG_OR)
 2916              		.loc 1 1164 0
 2917 00bc 17F0020F 		tst	r7, #2
 2918 00c0 05D0     		beq	.L214
1165:rt_thread/src/ipc.c ****     {
1166:rt_thread/src/ipc.c ****         if (event->set & set)
 2919              		.loc 1 1166 0
 2920 00c2 E369     		ldr	r3, [r4, #28]
 2921 00c4 1E42     		tst	r6, r3
 2922 00c6 0DD1     		bne	.L230
1147:rt_thread/src/ipc.c ****     /* get current thread */
 2923              		.loc 1 1147 0
 2924 00c8 4FF0FF33 		mov	r3, #-1
 2925 00cc 0BE0     		b	.L213
 2926              	.L214:
1167:rt_thread/src/ipc.c ****             status = RT_EOK;
1168:rt_thread/src/ipc.c ****     }
1169:rt_thread/src/ipc.c ****     else
1170:rt_thread/src/ipc.c ****     {
1171:rt_thread/src/ipc.c ****         /* either RT_EVENT_FLAG_AND or RT_EVENT_FLAG_OR should be set */
1172:rt_thread/src/ipc.c ****         RT_ASSERT(0);
 2927              		.loc 1 1172 0 discriminator 1
 2928 00ce 40F29442 		movw	r2, #1172
 2929 00d2 4249     		ldr	r1, .L232+12
 2930 00d4 3F48     		ldr	r0, .L232+4
 2931              	.LVL431:
 2932 00d6 FFF7FEFF 		bl	rt_assert_handler
 2933              	.LVL432:
1147:rt_thread/src/ipc.c ****     /* get current thread */
 2934              		.loc 1 1147 0 discriminator 1
 2935 00da 4FF0FF33 		mov	r3, #-1
 2936 00de 02E0     		b	.L213
ARM GAS  /tmp/ccObKSes.s 			page 76


 2937              	.LVL433:
 2938              	.L229:
1162:rt_thread/src/ipc.c ****     }
 2939              		.loc 1 1162 0
 2940 00e0 0023     		movs	r3, #0
 2941 00e2 00E0     		b	.L213
 2942              	.L230:
1167:rt_thread/src/ipc.c ****             status = RT_EOK;
 2943              		.loc 1 1167 0
 2944 00e4 0023     		movs	r3, #0
 2945              	.LVL434:
 2946              	.L213:
1173:rt_thread/src/ipc.c ****     }
1174:rt_thread/src/ipc.c **** 
1175:rt_thread/src/ipc.c ****     if (status == RT_EOK)
 2947              		.loc 1 1175 0
 2948 00e6 6BB9     		cbnz	r3, .L215
1176:rt_thread/src/ipc.c ****     {
1177:rt_thread/src/ipc.c ****         /* set received event */
1178:rt_thread/src/ipc.c ****         if (recved)
 2949              		.loc 1 1178 0
 2950 00e8 0A9B     		ldr	r3, [sp, #40]
 2951              	.LVL435:
 2952 00ea 1BB1     		cbz	r3, .L216
1179:rt_thread/src/ipc.c ****             *recved = (event->set & set);
 2953              		.loc 1 1179 0
 2954 00ec E369     		ldr	r3, [r4, #28]
 2955 00ee 3340     		ands	r3, r3, r6
 2956 00f0 0A9A     		ldr	r2, [sp, #40]
 2957 00f2 1360     		str	r3, [r2]
 2958              	.L216:
1180:rt_thread/src/ipc.c **** 
1181:rt_thread/src/ipc.c ****         /* received event */
1182:rt_thread/src/ipc.c ****         if (option & RT_EVENT_FLAG_CLEAR)
 2959              		.loc 1 1182 0
 2960 00f4 17F0040F 		tst	r7, #4
 2961 00f8 5AD0     		beq	.L217
1183:rt_thread/src/ipc.c ****             event->set &= ~set;
 2962              		.loc 1 1183 0
 2963 00fa E369     		ldr	r3, [r4, #28]
 2964 00fc 23EA0606 		bic	r6, r3, r6
 2965              	.LVL436:
 2966 0100 E661     		str	r6, [r4, #28]
 2967 0102 55E0     		b	.L217
 2968              	.LVL437:
 2969              	.L215:
1184:rt_thread/src/ipc.c ****     }
1185:rt_thread/src/ipc.c ****     else if (timeout == 0)
 2970              		.loc 1 1185 0
 2971 0104 019B     		ldr	r3, [sp, #4]
 2972              	.LVL438:
 2973 0106 1BB9     		cbnz	r3, .L218
1186:rt_thread/src/ipc.c ****     {
1187:rt_thread/src/ipc.c ****         /* no waiting */
1188:rt_thread/src/ipc.c ****         thread->error = -RT_ETIMEOUT;
 2974              		.loc 1 1188 0
 2975 0108 6FF00103 		mvn	r3, #1
ARM GAS  /tmp/ccObKSes.s 			page 77


 2976 010c 2B63     		str	r3, [r5, #48]
 2977 010e 4FE0     		b	.L217
 2978              	.L218:
1189:rt_thread/src/ipc.c ****     }
1190:rt_thread/src/ipc.c ****     else
1191:rt_thread/src/ipc.c ****     {
1192:rt_thread/src/ipc.c ****         /* fill thread event info */
1193:rt_thread/src/ipc.c ****         thread->event_set  = set;
 2979              		.loc 1 1193 0
 2980 0110 EE63     		str	r6, [r5, #60]
1194:rt_thread/src/ipc.c ****         thread->event_info = option;
 2981              		.loc 1 1194 0
 2982 0112 85F84070 		strb	r7, [r5, #64]
1195:rt_thread/src/ipc.c **** 
1196:rt_thread/src/ipc.c ****         /* put thread to suspended thread list */
1197:rt_thread/src/ipc.c ****         rt_ipc_list_suspend(&(event->parent.suspend_thread),
 2983              		.loc 1 1197 0
 2984 0116 04F11406 		add	r6, r4, #20
 2985              	.LVL439:
 2986 011a 677A     		ldrb	r7, [r4, #9]	@ zero_extendqisi2
 2987              	.LVL440:
 2988              	.LBB266:
 2989              	.LBB267:
  85:rt_thread/src/ipc.c **** 
 2990              		.loc 1 85 0
 2991 011c 2846     		mov	r0, r5
 2992 011e FFF7FEFF 		bl	rt_thread_suspend
 2993              	.LVL441:
  87:rt_thread/src/ipc.c ****     {
 2994              		.loc 1 87 0
 2995 0122 17B1     		cbz	r7, .L220
 2996 0124 012F     		cmp	r7, #1
 2997 0126 09D0     		beq	.L221
 2998 0128 26E0     		b	.L219
 2999              	.L220:
  90:rt_thread/src/ipc.c ****         break;
 3000              		.loc 1 90 0
 3001 012a 05F11403 		add	r3, r5, #20
 3002              	.LVL442:
 3003              	.LBB268:
 3004              	.LBB269:
  75:rt_thread/include/rtservice.h ****     n->prev = l->prev;
 3005              		.loc 2 75 0
 3006 012e 7268     		ldr	r2, [r6, #4]
 3007 0130 1360     		str	r3, [r2]
  76:rt_thread/include/rtservice.h **** 
 3008              		.loc 2 76 0
 3009 0132 7268     		ldr	r2, [r6, #4]
 3010 0134 AA61     		str	r2, [r5, #24]
  78:rt_thread/include/rtservice.h ****     n->next = l;
 3011              		.loc 2 78 0
 3012 0136 7360     		str	r3, [r6, #4]
  79:rt_thread/include/rtservice.h **** }
 3013              		.loc 2 79 0
 3014 0138 6E61     		str	r6, [r5, #20]
 3015 013a 1DE0     		b	.L219
 3016              	.LVL443:
ARM GAS  /tmp/ccObKSes.s 			page 78


 3017              	.L221:
 3018              	.LBE269:
 3019              	.LBE268:
 3020              	.LBB270:
  99:rt_thread/src/ipc.c ****             {
 3021              		.loc 1 99 0
 3022 013c 6369     		ldr	r3, [r4, #20]
 3023              	.LVL444:
 3024 013e 0FE0     		b	.L222
 3025              	.L225:
 3026              	.LVL445:
 104:rt_thread/src/ipc.c ****                 {
 3027              		.loc 1 104 0
 3028 0140 95F83510 		ldrb	r1, [r5, #53]	@ zero_extendqisi2
 3029 0144 93F82120 		ldrb	r2, [r3, #33]	@ zero_extendqisi2
 3030 0148 9142     		cmp	r1, r2
 3031 014a 08D2     		bcs	.L223
 107:rt_thread/src/ipc.c ****                     break;
 3032              		.loc 1 107 0
 3033 014c 05F11402 		add	r2, r5, #20
 3034              	.LVL446:
 3035              	.LBB271:
 3036              	.LBB272:
  75:rt_thread/include/rtservice.h ****     n->prev = l->prev;
 3037              		.loc 2 75 0
 3038 0150 5968     		ldr	r1, [r3, #4]
 3039 0152 0A60     		str	r2, [r1]
  76:rt_thread/include/rtservice.h **** 
 3040              		.loc 2 76 0
 3041 0154 5968     		ldr	r1, [r3, #4]
 3042 0156 A961     		str	r1, [r5, #24]
  78:rt_thread/include/rtservice.h ****     n->next = l;
 3043              		.loc 2 78 0
 3044 0158 5A60     		str	r2, [r3, #4]
  79:rt_thread/include/rtservice.h **** }
 3045              		.loc 2 79 0
 3046 015a 6B61     		str	r3, [r5, #20]
 3047 015c 02E0     		b	.L224
 3048              	.LVL447:
 3049              	.L223:
 3050              	.LBE272:
 3051              	.LBE271:
  99:rt_thread/src/ipc.c ****             {
 3052              		.loc 1 99 0
 3053 015e 1B68     		ldr	r3, [r3]
 3054              	.LVL448:
 3055              	.L222:
 3056 0160 9E42     		cmp	r6, r3
 3057 0162 EDD1     		bne	.L225
 3058              	.L224:
 116:rt_thread/src/ipc.c ****                 rt_list_insert_before(list, &(thread->tlist));
 3059              		.loc 1 116 0
 3060 0164 9E42     		cmp	r6, r3
 3061 0166 07D1     		bne	.L219
 117:rt_thread/src/ipc.c ****         }
 3062              		.loc 1 117 0
 3063 0168 05F11403 		add	r3, r5, #20
ARM GAS  /tmp/ccObKSes.s 			page 79


 3064              	.LVL449:
 3065              	.LBB273:
 3066              	.LBB274:
  75:rt_thread/include/rtservice.h ****     n->prev = l->prev;
 3067              		.loc 2 75 0
 3068 016c 7268     		ldr	r2, [r6, #4]
 3069 016e 1360     		str	r3, [r2]
  76:rt_thread/include/rtservice.h **** 
 3070              		.loc 2 76 0
 3071 0170 7268     		ldr	r2, [r6, #4]
 3072 0172 AA61     		str	r2, [r5, #24]
  78:rt_thread/include/rtservice.h ****     n->next = l;
 3073              		.loc 2 78 0
 3074 0174 7360     		str	r3, [r6, #4]
  79:rt_thread/include/rtservice.h **** }
 3075              		.loc 2 79 0
 3076 0176 6E61     		str	r6, [r5, #20]
 3077              	.LVL450:
 3078              	.L219:
 3079              	.LBE274:
 3080              	.LBE273:
 3081              	.LBE270:
 3082              	.LBE267:
 3083              	.LBE266:
1198:rt_thread/src/ipc.c ****                             thread,
1199:rt_thread/src/ipc.c ****                             event->parent.parent.flag);
1200:rt_thread/src/ipc.c **** 
1201:rt_thread/src/ipc.c ****         /* if there is a waiting timeout, active thread timer */
1202:rt_thread/src/ipc.c ****         if (timeout > 0)
 3084              		.loc 1 1202 0
 3085 0178 019B     		ldr	r3, [sp, #4]
 3086 017a 002B     		cmp	r3, #0
 3087 017c 09DD     		ble	.L226
1203:rt_thread/src/ipc.c ****         {
1204:rt_thread/src/ipc.c ****             /* reset the timeout of thread timer and start it */
1205:rt_thread/src/ipc.c ****             rt_timer_control(&(thread->thread_timer),
 3088              		.loc 1 1205 0
 3089 017e 05F16006 		add	r6, r5, #96
 3090 0182 01AA     		add	r2, sp, #4
 3091              	.LVL451:
 3092 0184 0021     		movs	r1, #0
 3093 0186 3046     		mov	r0, r6
 3094 0188 FFF7FEFF 		bl	rt_timer_control
 3095              	.LVL452:
1206:rt_thread/src/ipc.c ****                              RT_TIMER_CTRL_SET_TIME,
1207:rt_thread/src/ipc.c ****                              &timeout);
1208:rt_thread/src/ipc.c ****             rt_timer_start(&(thread->thread_timer));
 3096              		.loc 1 1208 0
 3097 018c 3046     		mov	r0, r6
 3098 018e FFF7FEFF 		bl	rt_timer_start
 3099              	.LVL453:
 3100              	.L226:
1209:rt_thread/src/ipc.c ****         }
1210:rt_thread/src/ipc.c **** 
1211:rt_thread/src/ipc.c ****         /* enable interrupt */
1212:rt_thread/src/ipc.c ****         rt_hw_interrupt_enable(level);
 3101              		.loc 1 1212 0
ARM GAS  /tmp/ccObKSes.s 			page 80


 3102 0192 4046     		mov	r0, r8
 3103 0194 FFF7FEFF 		bl	rt_hw_interrupt_enable
 3104              	.LVL454:
1213:rt_thread/src/ipc.c **** 
1214:rt_thread/src/ipc.c ****         /* do a schedule */
1215:rt_thread/src/ipc.c ****         rt_schedule();
 3105              		.loc 1 1215 0
 3106 0198 FFF7FEFF 		bl	rt_schedule
 3107              	.LVL455:
1216:rt_thread/src/ipc.c **** 
1217:rt_thread/src/ipc.c ****         if (thread->error != RT_EOK)
 3108              		.loc 1 1217 0
 3109 019c 286B     		ldr	r0, [r5, #48]
 3110 019e 98B9     		cbnz	r0, .L210
1218:rt_thread/src/ipc.c ****         {
1219:rt_thread/src/ipc.c ****             /* return error */
1220:rt_thread/src/ipc.c ****             return thread->error;
1221:rt_thread/src/ipc.c ****         }
1222:rt_thread/src/ipc.c **** 
1223:rt_thread/src/ipc.c ****         /* received an event, disable interrupt to protect */
1224:rt_thread/src/ipc.c ****         level = rt_hw_interrupt_disable();
 3111              		.loc 1 1224 0
 3112 01a0 FFF7FEFF 		bl	rt_hw_interrupt_disable
 3113              	.LVL456:
 3114 01a4 8146     		mov	r9, r0
 3115              	.LVL457:
1225:rt_thread/src/ipc.c **** 
1226:rt_thread/src/ipc.c ****         /* set received event */
1227:rt_thread/src/ipc.c ****         if (recved)
 3116              		.loc 1 1227 0
 3117 01a6 0A9B     		ldr	r3, [sp, #40]
 3118 01a8 13B1     		cbz	r3, .L217
1228:rt_thread/src/ipc.c ****             *recved = thread->event_set;
 3119              		.loc 1 1228 0
 3120 01aa EB6B     		ldr	r3, [r5, #60]
 3121 01ac 0A9A     		ldr	r2, [sp, #40]
 3122 01ae 1360     		str	r3, [r2]
 3123              	.LVL458:
 3124              	.L217:
1229:rt_thread/src/ipc.c ****     }
1230:rt_thread/src/ipc.c **** 
1231:rt_thread/src/ipc.c ****     /* enable interrupt */
1232:rt_thread/src/ipc.c ****     rt_hw_interrupt_enable(level);
 3125              		.loc 1 1232 0
 3126 01b0 4846     		mov	r0, r9
 3127 01b2 FFF7FEFF 		bl	rt_hw_interrupt_enable
 3128              	.LVL459:
1233:rt_thread/src/ipc.c **** 
1234:rt_thread/src/ipc.c ****     RT_OBJECT_HOOK_CALL(rt_object_take_hook, (&(event->parent.parent)));
 3129              		.loc 1 1234 0
 3130 01b6 0D4B     		ldr	r3, .L232+28
 3131 01b8 1B68     		ldr	r3, [r3]
 3132 01ba 0BB1     		cbz	r3, .L227
 3133              		.loc 1 1234 0 is_stmt 0 discriminator 1
 3134 01bc 2046     		mov	r0, r4
 3135 01be 9847     		blx	r3
 3136              	.LVL460:
ARM GAS  /tmp/ccObKSes.s 			page 81


 3137              	.L227:
1235:rt_thread/src/ipc.c **** 
1236:rt_thread/src/ipc.c ****     return thread->error;
 3138              		.loc 1 1236 0 is_stmt 1
 3139 01c0 286B     		ldr	r0, [r5, #48]
 3140 01c2 01E0     		b	.L210
 3141              	.LVL461:
 3142              	.L228:
1144:rt_thread/src/ipc.c **** 
 3143              		.loc 1 1144 0
 3144 01c4 4FF0FF30 		mov	r0, #-1
 3145              	.LVL462:
 3146              	.L210:
1237:rt_thread/src/ipc.c **** }
 3147              		.loc 1 1237 0
 3148 01c8 03B0     		add	sp, sp, #12
 3149              	.LCFI26:
 3150              		.cfi_def_cfa_offset 28
 3151              		@ sp needed
 3152 01ca BDE8F083 		pop	{r4, r5, r6, r7, r8, r9, pc}
 3153              	.LVL463:
 3154              	.L233:
 3155 01ce 00BF     		.align	2
 3156              	.L232:
 3157 01d0 04010000 		.word	.LC7
 3158 01d4 C4000000 		.word	.LC5
 3159 01d8 9C000000 		.word	.LC4
 3160 01dc 00000000 		.word	.LANCHOR19
 3161 01e0 08020000 		.word	.LC12
 3162 01e4 1C020000 		.word	.LC13
 3163 01e8 00000000 		.word	rt_object_trytake_hook
 3164 01ec 00000000 		.word	rt_object_take_hook
 3165              		.cfi_endproc
 3166              	.LFE39:
 3168              		.section	.text.rt_event_control,"ax",%progbits
 3169              		.align	2
 3170              		.global	rt_event_control
 3171              		.thumb
 3172              		.thumb_func
 3174              	rt_event_control:
 3175              	.LFB40:
1238:rt_thread/src/ipc.c **** RTM_EXPORT(rt_event_recv);
1239:rt_thread/src/ipc.c **** 
1240:rt_thread/src/ipc.c **** /**
1241:rt_thread/src/ipc.c ****  * This function can get or set some extra attributions of an event object.
1242:rt_thread/src/ipc.c ****  *
1243:rt_thread/src/ipc.c ****  * @param event the event object
1244:rt_thread/src/ipc.c ****  * @param cmd the execution command
1245:rt_thread/src/ipc.c ****  * @param arg the execution argument
1246:rt_thread/src/ipc.c ****  *
1247:rt_thread/src/ipc.c ****  * @return the error code
1248:rt_thread/src/ipc.c ****  */
1249:rt_thread/src/ipc.c **** rt_err_t rt_event_control(rt_event_t event, int cmd, void *arg)
1250:rt_thread/src/ipc.c **** {
 3176              		.loc 1 1250 0
 3177              		.cfi_startproc
 3178              		@ args = 0, pretend = 0, frame = 0
ARM GAS  /tmp/ccObKSes.s 			page 82


 3179              		@ frame_needed = 0, uses_anonymous_args = 0
 3180              	.LVL464:
 3181 0000 F8B5     		push	{r3, r4, r5, r6, r7, lr}
 3182              	.LCFI27:
 3183              		.cfi_def_cfa_offset 24
 3184              		.cfi_offset 3, -24
 3185              		.cfi_offset 4, -20
 3186              		.cfi_offset 5, -16
 3187              		.cfi_offset 6, -12
 3188              		.cfi_offset 7, -8
 3189              		.cfi_offset 14, -4
 3190 0002 0C46     		mov	r4, r1
1251:rt_thread/src/ipc.c ****     rt_ubase_t level;
1252:rt_thread/src/ipc.c **** 
1253:rt_thread/src/ipc.c ****     /* parameter check */
1254:rt_thread/src/ipc.c ****     RT_ASSERT(event != RT_NULL);
 3191              		.loc 1 1254 0
 3192 0004 0646     		mov	r6, r0
 3193 0006 28B9     		cbnz	r0, .L235
 3194              		.loc 1 1254 0 is_stmt 0 discriminator 1
 3195 0008 40F2E642 		movw	r2, #1254
 3196              	.LVL465:
 3197 000c 1949     		ldr	r1, .L242
 3198              	.LVL466:
 3199 000e 1A48     		ldr	r0, .L242+4
 3200              	.LVL467:
 3201 0010 FFF7FEFF 		bl	rt_assert_handler
 3202              	.LVL468:
 3203              	.L235:
1255:rt_thread/src/ipc.c ****     RT_ASSERT(rt_object_get_type(&event->parent.parent) == RT_Object_Class_Event);
 3204              		.loc 1 1255 0 is_stmt 1
 3205 0014 3046     		mov	r0, r6
 3206 0016 FFF7FEFF 		bl	rt_object_get_type
 3207              	.LVL469:
 3208 001a 0428     		cmp	r0, #4
 3209 001c 05D0     		beq	.L236
 3210              		.loc 1 1255 0 is_stmt 0 discriminator 1
 3211 001e 40F2E742 		movw	r2, #1255
 3212 0022 1449     		ldr	r1, .L242
 3213 0024 1548     		ldr	r0, .L242+8
 3214 0026 FFF7FEFF 		bl	rt_assert_handler
 3215              	.LVL470:
 3216              	.L236:
1256:rt_thread/src/ipc.c **** 
1257:rt_thread/src/ipc.c ****     if (cmd == RT_IPC_CMD_RESET)
 3217              		.loc 1 1257 0 is_stmt 1
 3218 002a 012C     		cmp	r4, #1
 3219 002c 1ED1     		bne	.L240
1258:rt_thread/src/ipc.c ****     {
1259:rt_thread/src/ipc.c ****         /* disable interrupt */
1260:rt_thread/src/ipc.c ****         level = rt_hw_interrupt_disable();
 3220              		.loc 1 1260 0
 3221 002e FFF7FEFF 		bl	rt_hw_interrupt_disable
 3222              	.LVL471:
 3223 0032 0746     		mov	r7, r0
 3224              	.LVL472:
1261:rt_thread/src/ipc.c **** 
ARM GAS  /tmp/ccObKSes.s 			page 83


1262:rt_thread/src/ipc.c ****         /* resume all waiting thread */
1263:rt_thread/src/ipc.c ****         rt_ipc_list_resume_all(&event->parent.suspend_thread);
 3225              		.loc 1 1263 0
 3226 0034 06F11404 		add	r4, r6, #20
 3227              	.LVL473:
 3228 0038 0CE0     		b	.L238
 3229              	.LVL474:
 3230              	.L239:
 3231              	.LBB279:
 3232              	.LBB280:
 166:rt_thread/src/ipc.c **** 
 3233              		.loc 1 166 0
 3234 003a FFF7FEFF 		bl	rt_hw_interrupt_disable
 3235              	.LVL475:
 3236 003e 0546     		mov	r5, r0
 3237              	.LVL476:
 169:rt_thread/src/ipc.c ****         /* set error code to RT_ERROR */
 3238              		.loc 1 169 0
 3239 0040 2068     		ldr	r0, [r4]
 3240              	.LVL477:
 171:rt_thread/src/ipc.c **** 
 3241              		.loc 1 171 0
 3242 0042 4FF0FF33 		mov	r3, #-1
 3243 0046 C361     		str	r3, [r0, #28]
 178:rt_thread/src/ipc.c **** 
 3244              		.loc 1 178 0
 3245 0048 1438     		subs	r0, r0, #20
 3246              	.LVL478:
 3247 004a FFF7FEFF 		bl	rt_thread_resume
 3248              	.LVL479:
 181:rt_thread/src/ipc.c ****     }
 3249              		.loc 1 181 0
 3250 004e 2846     		mov	r0, r5
 3251 0050 FFF7FEFF 		bl	rt_hw_interrupt_enable
 3252              	.LVL480:
 3253              	.L238:
 3254              	.LBB281:
 3255              	.LBB282:
 3256              		.loc 2 100 0
 3257 0054 2368     		ldr	r3, [r4]
 3258              	.LVL481:
 3259              	.LBE282:
 3260              	.LBE281:
 163:rt_thread/src/ipc.c ****     {
 3261              		.loc 1 163 0
 3262 0056 9C42     		cmp	r4, r3
 3263 0058 EFD1     		bne	.L239
 3264              	.LVL482:
 3265              	.LBE280:
 3266              	.LBE279:
1264:rt_thread/src/ipc.c **** 
1265:rt_thread/src/ipc.c ****         /* initialize event set */
1266:rt_thread/src/ipc.c ****         event->set = 0;
 3267              		.loc 1 1266 0
 3268 005a 0024     		movs	r4, #0
 3269 005c F461     		str	r4, [r6, #28]
1267:rt_thread/src/ipc.c **** 
ARM GAS  /tmp/ccObKSes.s 			page 84


1268:rt_thread/src/ipc.c ****         /* enable interrupt */
1269:rt_thread/src/ipc.c ****         rt_hw_interrupt_enable(level);
 3270              		.loc 1 1269 0
 3271 005e 3846     		mov	r0, r7
 3272 0060 FFF7FEFF 		bl	rt_hw_interrupt_enable
 3273              	.LVL483:
1270:rt_thread/src/ipc.c **** 
1271:rt_thread/src/ipc.c ****         rt_schedule();
 3274              		.loc 1 1271 0
 3275 0064 FFF7FEFF 		bl	rt_schedule
 3276              	.LVL484:
1272:rt_thread/src/ipc.c **** 
1273:rt_thread/src/ipc.c ****         return RT_EOK;
 3277              		.loc 1 1273 0
 3278 0068 2046     		mov	r0, r4
 3279 006a F8BD     		pop	{r3, r4, r5, r6, r7, pc}
 3280              	.LVL485:
 3281              	.L240:
1274:rt_thread/src/ipc.c ****     }
1275:rt_thread/src/ipc.c **** 
1276:rt_thread/src/ipc.c ****     return -RT_ERROR;
 3282              		.loc 1 1276 0
 3283 006c 4FF0FF30 		mov	r0, #-1
1277:rt_thread/src/ipc.c **** }
 3284              		.loc 1 1277 0
 3285 0070 F8BD     		pop	{r3, r4, r5, r6, r7, pc}
 3286              	.LVL486:
 3287              	.L243:
 3288 0072 00BF     		.align	2
 3289              	.L242:
 3290 0074 00000000 		.word	.LANCHOR20
 3291 0078 08020000 		.word	.LC12
 3292 007c 1C020000 		.word	.LC13
 3293              		.cfi_endproc
 3294              	.LFE40:
 3296              		.section	.text.rt_mb_init,"ax",%progbits
 3297              		.align	2
 3298              		.global	rt_mb_init
 3299              		.thumb
 3300              		.thumb_func
 3302              	rt_mb_init:
 3303              	.LFB41:
1278:rt_thread/src/ipc.c **** RTM_EXPORT(rt_event_control);
1279:rt_thread/src/ipc.c **** #endif /* end of RT_USING_EVENT */
1280:rt_thread/src/ipc.c **** 
1281:rt_thread/src/ipc.c **** #ifdef RT_USING_MAILBOX
1282:rt_thread/src/ipc.c **** /**
1283:rt_thread/src/ipc.c ****  * This function will initialize a mailbox and put it under control of resource
1284:rt_thread/src/ipc.c ****  * management.
1285:rt_thread/src/ipc.c ****  *
1286:rt_thread/src/ipc.c ****  * @param mb the mailbox object
1287:rt_thread/src/ipc.c ****  * @param name the name of mailbox
1288:rt_thread/src/ipc.c ****  * @param msgpool the begin address of buffer to save received mail
1289:rt_thread/src/ipc.c ****  * @param size the size of mailbox
1290:rt_thread/src/ipc.c ****  * @param flag the flag of mailbox
1291:rt_thread/src/ipc.c ****  *
1292:rt_thread/src/ipc.c ****  * @return the operation status, RT_EOK on successful
ARM GAS  /tmp/ccObKSes.s 			page 85


1293:rt_thread/src/ipc.c ****  */
1294:rt_thread/src/ipc.c **** rt_err_t rt_mb_init(rt_mailbox_t mb,
1295:rt_thread/src/ipc.c ****                     const char  *name,
1296:rt_thread/src/ipc.c ****                     void        *msgpool,
1297:rt_thread/src/ipc.c ****                     rt_size_t    size,
1298:rt_thread/src/ipc.c ****                     rt_uint8_t   flag)
1299:rt_thread/src/ipc.c **** {
 3304              		.loc 1 1299 0
 3305              		.cfi_startproc
 3306              		@ args = 4, pretend = 0, frame = 0
 3307              		@ frame_needed = 0, uses_anonymous_args = 0
 3308              	.LVL487:
 3309 0000 F8B5     		push	{r3, r4, r5, r6, r7, lr}
 3310              	.LCFI28:
 3311              		.cfi_def_cfa_offset 24
 3312              		.cfi_offset 3, -24
 3313              		.cfi_offset 4, -20
 3314              		.cfi_offset 5, -16
 3315              		.cfi_offset 6, -12
 3316              		.cfi_offset 7, -8
 3317              		.cfi_offset 14, -4
 3318 0002 0F46     		mov	r7, r1
 3319 0004 1646     		mov	r6, r2
 3320 0006 1D46     		mov	r5, r3
1300:rt_thread/src/ipc.c ****     RT_ASSERT(mb != RT_NULL);
 3321              		.loc 1 1300 0
 3322 0008 0446     		mov	r4, r0
 3323 000a 28B9     		cbnz	r0, .L245
 3324              		.loc 1 1300 0 is_stmt 0 discriminator 1
 3325 000c 40F21452 		movw	r2, #1300
 3326              	.LVL488:
 3327 0010 0D49     		ldr	r1, .L247
 3328              	.LVL489:
 3329 0012 0E48     		ldr	r0, .L247+4
 3330              	.LVL490:
 3331 0014 FFF7FEFF 		bl	rt_assert_handler
 3332              	.LVL491:
 3333              	.L245:
1301:rt_thread/src/ipc.c **** 
1302:rt_thread/src/ipc.c ****     /* initialize object */
1303:rt_thread/src/ipc.c ****     rt_object_init(&(mb->parent.parent), RT_Object_Class_MailBox, name);
 3334              		.loc 1 1303 0 is_stmt 1
 3335 0018 3A46     		mov	r2, r7
 3336 001a 0521     		movs	r1, #5
 3337 001c 2046     		mov	r0, r4
 3338 001e FFF7FEFF 		bl	rt_object_init
 3339              	.LVL492:
1304:rt_thread/src/ipc.c **** 
1305:rt_thread/src/ipc.c ****     /* set parent flag */
1306:rt_thread/src/ipc.c ****     mb->parent.parent.flag = flag;
 3340              		.loc 1 1306 0
 3341 0022 9DF81830 		ldrb	r3, [sp, #24]	@ zero_extendqisi2
 3342 0026 6372     		strb	r3, [r4, #9]
 3343              	.LVL493:
 3344              	.LBB283:
 3345              	.LBB284:
  64:rt_thread/src/ipc.c **** 
ARM GAS  /tmp/ccObKSes.s 			page 86


 3346              		.loc 1 64 0
 3347 0028 04F11403 		add	r3, r4, #20
 3348              	.LVL494:
 3349              	.LBB285:
 3350              	.LBB286:
  49:rt_thread/include/rtservice.h **** }
 3351              		.loc 2 49 0
 3352 002c A361     		str	r3, [r4, #24]
 3353 002e 6361     		str	r3, [r4, #20]
 3354              	.LVL495:
 3355              	.LBE286:
 3356              	.LBE285:
 3357              	.LBE284:
 3358              	.LBE283:
1307:rt_thread/src/ipc.c **** 
1308:rt_thread/src/ipc.c ****     /* initialize ipc object */
1309:rt_thread/src/ipc.c ****     rt_ipc_object_init(&(mb->parent));
1310:rt_thread/src/ipc.c **** 
1311:rt_thread/src/ipc.c ****     /* initialize mailbox */
1312:rt_thread/src/ipc.c ****     mb->msg_pool   = (rt_ubase_t *)msgpool;
 3359              		.loc 1 1312 0
 3360 0030 E661     		str	r6, [r4, #28]
1313:rt_thread/src/ipc.c ****     mb->size       = size;
 3361              		.loc 1 1313 0
 3362 0032 2584     		strh	r5, [r4, #32]	@ movhi
1314:rt_thread/src/ipc.c ****     mb->entry      = 0;
 3363              		.loc 1 1314 0
 3364 0034 0020     		movs	r0, #0
 3365 0036 6084     		strh	r0, [r4, #34]	@ movhi
1315:rt_thread/src/ipc.c ****     mb->in_offset  = 0;
 3366              		.loc 1 1315 0
 3367 0038 A084     		strh	r0, [r4, #36]	@ movhi
1316:rt_thread/src/ipc.c ****     mb->out_offset = 0;
 3368              		.loc 1 1316 0
 3369 003a E084     		strh	r0, [r4, #38]	@ movhi
1317:rt_thread/src/ipc.c **** 
1318:rt_thread/src/ipc.c ****     /* initialize an additional list of sender suspend thread */
1319:rt_thread/src/ipc.c ****     rt_list_init(&(mb->suspend_sender_thread));
 3370              		.loc 1 1319 0
 3371 003c 04F12803 		add	r3, r4, #40
 3372              	.LVL496:
 3373              	.LBB287:
 3374              	.LBB288:
  49:rt_thread/include/rtservice.h **** }
 3375              		.loc 2 49 0
 3376 0040 E362     		str	r3, [r4, #44]
 3377 0042 A362     		str	r3, [r4, #40]
 3378              	.LVL497:
 3379              	.LBE288:
 3380              	.LBE287:
1320:rt_thread/src/ipc.c **** 
1321:rt_thread/src/ipc.c ****     return RT_EOK;
1322:rt_thread/src/ipc.c **** }
 3381              		.loc 1 1322 0
 3382 0044 F8BD     		pop	{r3, r4, r5, r6, r7, pc}
 3383              	.LVL498:
 3384              	.L248:
ARM GAS  /tmp/ccObKSes.s 			page 87


 3385 0046 00BF     		.align	2
 3386              	.L247:
 3387 0048 00000000 		.word	.LANCHOR21
 3388 004c D4020000 		.word	.LC16
 3389              		.cfi_endproc
 3390              	.LFE41:
 3392              		.section	.text.rt_mb_detach,"ax",%progbits
 3393              		.align	2
 3394              		.global	rt_mb_detach
 3395              		.thumb
 3396              		.thumb_func
 3398              	rt_mb_detach:
 3399              	.LFB42:
1323:rt_thread/src/ipc.c **** RTM_EXPORT(rt_mb_init);
1324:rt_thread/src/ipc.c **** 
1325:rt_thread/src/ipc.c **** /**
1326:rt_thread/src/ipc.c ****  * This function will detach a mailbox from resource management
1327:rt_thread/src/ipc.c ****  *
1328:rt_thread/src/ipc.c ****  * @param mb the mailbox object
1329:rt_thread/src/ipc.c ****  *
1330:rt_thread/src/ipc.c ****  * @return the operation status, RT_EOK on successful
1331:rt_thread/src/ipc.c ****  */
1332:rt_thread/src/ipc.c **** rt_err_t rt_mb_detach(rt_mailbox_t mb)
1333:rt_thread/src/ipc.c **** {
 3400              		.loc 1 1333 0
 3401              		.cfi_startproc
 3402              		@ args = 0, pretend = 0, frame = 0
 3403              		@ frame_needed = 0, uses_anonymous_args = 0
 3404              	.LVL499:
 3405 0000 70B5     		push	{r4, r5, r6, lr}
 3406              	.LCFI29:
 3407              		.cfi_def_cfa_offset 16
 3408              		.cfi_offset 4, -16
 3409              		.cfi_offset 5, -12
 3410              		.cfi_offset 6, -8
 3411              		.cfi_offset 14, -4
1334:rt_thread/src/ipc.c ****     /* parameter check */
1335:rt_thread/src/ipc.c ****     RT_ASSERT(mb != RT_NULL);
 3412              		.loc 1 1335 0
 3413 0002 0646     		mov	r6, r0
 3414 0004 28B9     		cbnz	r0, .L250
 3415              		.loc 1 1335 0 is_stmt 0 discriminator 1
 3416 0006 40F23752 		movw	r2, #1335
 3417 000a 2249     		ldr	r1, .L258
 3418 000c 2248     		ldr	r0, .L258+4
 3419              	.LVL500:
 3420 000e FFF7FEFF 		bl	rt_assert_handler
 3421              	.LVL501:
 3422              	.L250:
1336:rt_thread/src/ipc.c ****     RT_ASSERT(rt_object_get_type(&mb->parent.parent) == RT_Object_Class_MailBox);
 3423              		.loc 1 1336 0 is_stmt 1
 3424 0012 3046     		mov	r0, r6
 3425 0014 FFF7FEFF 		bl	rt_object_get_type
 3426              	.LVL502:
 3427 0018 0528     		cmp	r0, #5
 3428 001a 05D0     		beq	.L251
 3429              		.loc 1 1336 0 is_stmt 0 discriminator 1
ARM GAS  /tmp/ccObKSes.s 			page 88


 3430 001c 4FF4A762 		mov	r2, #1336
 3431 0020 1C49     		ldr	r1, .L258
 3432 0022 1E48     		ldr	r0, .L258+8
 3433 0024 FFF7FEFF 		bl	rt_assert_handler
 3434              	.LVL503:
 3435              	.L251:
1337:rt_thread/src/ipc.c ****     RT_ASSERT(rt_object_is_systemobject(&mb->parent.parent));
 3436              		.loc 1 1337 0 is_stmt 1
 3437 0028 3046     		mov	r0, r6
 3438 002a FFF7FEFF 		bl	rt_object_is_systemobject
 3439              	.LVL504:
 3440 002e 28B9     		cbnz	r0, .L252
 3441              		.loc 1 1337 0 is_stmt 0 discriminator 1
 3442 0030 40F23952 		movw	r2, #1337
 3443 0034 1749     		ldr	r1, .L258
 3444 0036 1A48     		ldr	r0, .L258+12
 3445 0038 FFF7FEFF 		bl	rt_assert_handler
 3446              	.LVL505:
 3447              	.L252:
1338:rt_thread/src/ipc.c **** 
1339:rt_thread/src/ipc.c ****     /* resume all suspended thread */
1340:rt_thread/src/ipc.c ****     rt_ipc_list_resume_all(&(mb->parent.suspend_thread));
 3448              		.loc 1 1340 0 is_stmt 1
 3449 003c 06F11404 		add	r4, r6, #20
 3450              	.LVL506:
 3451 0040 0CE0     		b	.L253
 3452              	.L254:
 3453              	.LBB297:
 3454              	.LBB298:
 166:rt_thread/src/ipc.c **** 
 3455              		.loc 1 166 0
 3456 0042 FFF7FEFF 		bl	rt_hw_interrupt_disable
 3457              	.LVL507:
 3458 0046 0546     		mov	r5, r0
 3459              	.LVL508:
 169:rt_thread/src/ipc.c ****         /* set error code to RT_ERROR */
 3460              		.loc 1 169 0
 3461 0048 2068     		ldr	r0, [r4]
 3462              	.LVL509:
 171:rt_thread/src/ipc.c **** 
 3463              		.loc 1 171 0
 3464 004a 4FF0FF33 		mov	r3, #-1
 3465 004e C361     		str	r3, [r0, #28]
 178:rt_thread/src/ipc.c **** 
 3466              		.loc 1 178 0
 3467 0050 1438     		subs	r0, r0, #20
 3468              	.LVL510:
 3469 0052 FFF7FEFF 		bl	rt_thread_resume
 3470              	.LVL511:
 181:rt_thread/src/ipc.c ****     }
 3471              		.loc 1 181 0
 3472 0056 2846     		mov	r0, r5
 3473 0058 FFF7FEFF 		bl	rt_hw_interrupt_enable
 3474              	.LVL512:
 3475              	.L253:
 3476              	.LBB299:
 3477              	.LBB300:
ARM GAS  /tmp/ccObKSes.s 			page 89


 3478              		.loc 2 100 0
 3479 005c 2368     		ldr	r3, [r4]
 3480              	.LVL513:
 3481              	.LBE300:
 3482              	.LBE299:
 163:rt_thread/src/ipc.c ****     {
 3483              		.loc 1 163 0
 3484 005e 9C42     		cmp	r4, r3
 3485 0060 EFD1     		bne	.L254
 3486              	.LVL514:
 3487              	.LBE298:
 3488              	.LBE297:
1341:rt_thread/src/ipc.c ****     /* also resume all mailbox private suspended thread */
1342:rt_thread/src/ipc.c ****     rt_ipc_list_resume_all(&(mb->suspend_sender_thread));
 3489              		.loc 1 1342 0
 3490 0062 06F12804 		add	r4, r6, #40
 3491              	.LVL515:
 3492 0066 0CE0     		b	.L255
 3493              	.L256:
 3494              	.LBB301:
 3495              	.LBB302:
 166:rt_thread/src/ipc.c **** 
 3496              		.loc 1 166 0
 3497 0068 FFF7FEFF 		bl	rt_hw_interrupt_disable
 3498              	.LVL516:
 3499 006c 0546     		mov	r5, r0
 3500              	.LVL517:
 169:rt_thread/src/ipc.c ****         /* set error code to RT_ERROR */
 3501              		.loc 1 169 0
 3502 006e 2068     		ldr	r0, [r4]
 3503              	.LVL518:
 171:rt_thread/src/ipc.c **** 
 3504              		.loc 1 171 0
 3505 0070 4FF0FF33 		mov	r3, #-1
 3506 0074 C361     		str	r3, [r0, #28]
 178:rt_thread/src/ipc.c **** 
 3507              		.loc 1 178 0
 3508 0076 1438     		subs	r0, r0, #20
 3509              	.LVL519:
 3510 0078 FFF7FEFF 		bl	rt_thread_resume
 3511              	.LVL520:
 181:rt_thread/src/ipc.c ****     }
 3512              		.loc 1 181 0
 3513 007c 2846     		mov	r0, r5
 3514 007e FFF7FEFF 		bl	rt_hw_interrupt_enable
 3515              	.LVL521:
 3516              	.L255:
 3517              	.LBB303:
 3518              	.LBB304:
 3519              		.loc 2 100 0
 3520 0082 2368     		ldr	r3, [r4]
 3521              	.LVL522:
 3522              	.LBE304:
 3523              	.LBE303:
 163:rt_thread/src/ipc.c ****     {
 3524              		.loc 1 163 0
 3525 0084 9C42     		cmp	r4, r3
ARM GAS  /tmp/ccObKSes.s 			page 90


 3526 0086 EFD1     		bne	.L256
 3527              	.LVL523:
 3528              	.LBE302:
 3529              	.LBE301:
1343:rt_thread/src/ipc.c **** 
1344:rt_thread/src/ipc.c ****     /* detach mailbox object */
1345:rt_thread/src/ipc.c ****     rt_object_detach(&(mb->parent.parent));
 3530              		.loc 1 1345 0
 3531 0088 3046     		mov	r0, r6
 3532 008a FFF7FEFF 		bl	rt_object_detach
 3533              	.LVL524:
1346:rt_thread/src/ipc.c **** 
1347:rt_thread/src/ipc.c ****     return RT_EOK;
1348:rt_thread/src/ipc.c **** }
 3534              		.loc 1 1348 0
 3535 008e 0020     		movs	r0, #0
 3536 0090 70BD     		pop	{r4, r5, r6, pc}
 3537              	.LVL525:
 3538              	.L259:
 3539 0092 00BF     		.align	2
 3540              	.L258:
 3541 0094 00000000 		.word	.LANCHOR22
 3542 0098 D4020000 		.word	.LC16
 3543 009c E4020000 		.word	.LC17
 3544 00a0 28030000 		.word	.LC18
 3545              		.cfi_endproc
 3546              	.LFE42:
 3548              		.section	.text.rt_mb_create,"ax",%progbits
 3549              		.align	2
 3550              		.global	rt_mb_create
 3551              		.thumb
 3552              		.thumb_func
 3554              	rt_mb_create:
 3555              	.LFB43:
1349:rt_thread/src/ipc.c **** RTM_EXPORT(rt_mb_detach);
1350:rt_thread/src/ipc.c **** 
1351:rt_thread/src/ipc.c **** #ifdef RT_USING_HEAP
1352:rt_thread/src/ipc.c **** /**
1353:rt_thread/src/ipc.c ****  * This function will create a mailbox object from system resource
1354:rt_thread/src/ipc.c ****  *
1355:rt_thread/src/ipc.c ****  * @param name the name of mailbox
1356:rt_thread/src/ipc.c ****  * @param size the size of mailbox
1357:rt_thread/src/ipc.c ****  * @param flag the flag of mailbox
1358:rt_thread/src/ipc.c ****  *
1359:rt_thread/src/ipc.c ****  * @return the created mailbox, RT_NULL on error happen
1360:rt_thread/src/ipc.c ****  */
1361:rt_thread/src/ipc.c **** rt_mailbox_t rt_mb_create(const char *name, rt_size_t size, rt_uint8_t flag)
1362:rt_thread/src/ipc.c **** {
 3556              		.loc 1 1362 0
 3557              		.cfi_startproc
 3558              		@ args = 0, pretend = 0, frame = 0
 3559              		@ frame_needed = 0, uses_anonymous_args = 0
 3560              	.LVL526:
 3561 0000 2DE9F041 		push	{r4, r5, r6, r7, r8, lr}
 3562              	.LCFI30:
 3563              		.cfi_def_cfa_offset 24
 3564              		.cfi_offset 4, -24
ARM GAS  /tmp/ccObKSes.s 			page 91


 3565              		.cfi_offset 5, -20
 3566              		.cfi_offset 6, -16
 3567              		.cfi_offset 7, -12
 3568              		.cfi_offset 8, -8
 3569              		.cfi_offset 14, -4
 3570 0004 0446     		mov	r4, r0
 3571 0006 0D46     		mov	r5, r1
 3572 0008 1746     		mov	r7, r2
 3573              	.LBB305:
1363:rt_thread/src/ipc.c ****     rt_mailbox_t mb;
1364:rt_thread/src/ipc.c **** 
1365:rt_thread/src/ipc.c ****     RT_DEBUG_NOT_IN_INTERRUPT;
 3574              		.loc 1 1365 0
 3575 000a FFF7FEFF 		bl	rt_hw_interrupt_disable
 3576              	.LVL527:
 3577 000e 0646     		mov	r6, r0
 3578              	.LVL528:
 3579 0010 FFF7FEFF 		bl	rt_interrupt_get_nest
 3580              	.LVL529:
 3581 0014 58B1     		cbz	r0, .L261
 3582              		.loc 1 1365 0 is_stmt 0 discriminator 1
 3583 0016 DFF87080 		ldr	r8, .L266+8
 3584 001a 4146     		mov	r1, r8
 3585 001c 1848     		ldr	r0, .L266
 3586 001e FFF7FEFF 		bl	rt_kprintf
 3587              	.LVL530:
 3588 0022 40F25552 		movw	r2, #1365
 3589 0026 4146     		mov	r1, r8
 3590 0028 1648     		ldr	r0, .L266+4
 3591 002a FFF7FEFF 		bl	rt_assert_handler
 3592              	.LVL531:
 3593              	.L261:
 3594              		.loc 1 1365 0 discriminator 5
 3595 002e 3046     		mov	r0, r6
 3596 0030 FFF7FEFF 		bl	rt_hw_interrupt_enable
 3597              	.LVL532:
 3598              	.LBE305:
1366:rt_thread/src/ipc.c **** 
1367:rt_thread/src/ipc.c ****     /* allocate object */
1368:rt_thread/src/ipc.c ****     mb = (rt_mailbox_t)rt_object_allocate(RT_Object_Class_MailBox, name);
 3599              		.loc 1 1368 0 is_stmt 1 discriminator 5
 3600 0034 2146     		mov	r1, r4
 3601 0036 0520     		movs	r0, #5
 3602 0038 FFF7FEFF 		bl	rt_object_allocate
 3603              	.LVL533:
1369:rt_thread/src/ipc.c ****     if (mb == RT_NULL)
 3604              		.loc 1 1369 0 discriminator 5
 3605 003c 0446     		mov	r4, r0
 3606              	.LVL534:
 3607 003e E0B1     		cbz	r0, .L264
1370:rt_thread/src/ipc.c ****         return mb;
1371:rt_thread/src/ipc.c **** 
1372:rt_thread/src/ipc.c ****     /* set parent */
1373:rt_thread/src/ipc.c ****     mb->parent.parent.flag = flag;
 3608              		.loc 1 1373 0
 3609 0040 4772     		strb	r7, [r0, #9]
 3610              	.LVL535:
ARM GAS  /tmp/ccObKSes.s 			page 92


 3611              	.LBB306:
 3612              	.LBB307:
  64:rt_thread/src/ipc.c **** 
 3613              		.loc 1 64 0
 3614 0042 00F11403 		add	r3, r0, #20
 3615              	.LVL536:
 3616              	.LBB308:
 3617              	.LBB309:
  49:rt_thread/include/rtservice.h **** }
 3618              		.loc 2 49 0
 3619 0046 8361     		str	r3, [r0, #24]
 3620 0048 4361     		str	r3, [r0, #20]
 3621              	.LVL537:
 3622              	.LBE309:
 3623              	.LBE308:
 3624              	.LBE307:
 3625              	.LBE306:
1374:rt_thread/src/ipc.c **** 
1375:rt_thread/src/ipc.c ****     /* initialize ipc object */
1376:rt_thread/src/ipc.c ****     rt_ipc_object_init(&(mb->parent));
1377:rt_thread/src/ipc.c **** 
1378:rt_thread/src/ipc.c ****     /* initialize mailbox */
1379:rt_thread/src/ipc.c ****     mb->size     = size;
 3626              		.loc 1 1379 0
 3627 004a A8B2     		uxth	r0, r5
 3628              	.LVL538:
 3629 004c 2084     		strh	r0, [r4, #32]	@ movhi
1380:rt_thread/src/ipc.c ****     mb->msg_pool = (rt_ubase_t *)RT_KERNEL_MALLOC(mb->size * sizeof(rt_ubase_t));
 3630              		.loc 1 1380 0
 3631 004e 8000     		lsls	r0, r0, #2
 3632 0050 FFF7FEFF 		bl	rt_malloc
 3633              	.LVL539:
 3634 0054 E061     		str	r0, [r4, #28]
1381:rt_thread/src/ipc.c ****     if (mb->msg_pool == RT_NULL)
 3635              		.loc 1 1381 0
 3636 0056 28B9     		cbnz	r0, .L263
1382:rt_thread/src/ipc.c ****     {
1383:rt_thread/src/ipc.c ****         /* delete mailbox object */
1384:rt_thread/src/ipc.c ****         rt_object_delete(&(mb->parent.parent));
 3637              		.loc 1 1384 0
 3638 0058 2046     		mov	r0, r4
 3639 005a FFF7FEFF 		bl	rt_object_delete
 3640              	.LVL540:
1385:rt_thread/src/ipc.c **** 
1386:rt_thread/src/ipc.c ****         return RT_NULL;
 3641              		.loc 1 1386 0
 3642 005e 0020     		movs	r0, #0
 3643 0060 BDE8F081 		pop	{r4, r5, r6, r7, r8, pc}
 3644              	.LVL541:
 3645              	.L263:
1387:rt_thread/src/ipc.c ****     }
1388:rt_thread/src/ipc.c ****     mb->entry      = 0;
 3646              		.loc 1 1388 0
 3647 0064 0023     		movs	r3, #0
 3648 0066 6384     		strh	r3, [r4, #34]	@ movhi
1389:rt_thread/src/ipc.c ****     mb->in_offset  = 0;
 3649              		.loc 1 1389 0
ARM GAS  /tmp/ccObKSes.s 			page 93


 3650 0068 A384     		strh	r3, [r4, #36]	@ movhi
1390:rt_thread/src/ipc.c ****     mb->out_offset = 0;
 3651              		.loc 1 1390 0
 3652 006a E384     		strh	r3, [r4, #38]	@ movhi
1391:rt_thread/src/ipc.c **** 
1392:rt_thread/src/ipc.c ****     /* initialize an additional list of sender suspend thread */
1393:rt_thread/src/ipc.c ****     rt_list_init(&(mb->suspend_sender_thread));
 3653              		.loc 1 1393 0
 3654 006c 04F12803 		add	r3, r4, #40
 3655              	.LVL542:
 3656              	.LBB310:
 3657              	.LBB311:
  49:rt_thread/include/rtservice.h **** }
 3658              		.loc 2 49 0
 3659 0070 E362     		str	r3, [r4, #44]
 3660 0072 A362     		str	r3, [r4, #40]
 3661              	.LVL543:
 3662              	.LBE311:
 3663              	.LBE310:
1394:rt_thread/src/ipc.c **** 
1395:rt_thread/src/ipc.c ****     return mb;
 3664              		.loc 1 1395 0
 3665 0074 2046     		mov	r0, r4
 3666 0076 BDE8F081 		pop	{r4, r5, r6, r7, r8, pc}
 3667              	.LVL544:
 3668              	.L264:
1396:rt_thread/src/ipc.c **** }
 3669              		.loc 1 1396 0
 3670 007a BDE8F081 		pop	{r4, r5, r6, r7, r8, pc}
 3671              	.LVL545:
 3672              	.L267:
 3673 007e 00BF     		.align	2
 3674              	.L266:
 3675 0080 9C000000 		.word	.LC4
 3676 0084 C4000000 		.word	.LC5
 3677 0088 00000000 		.word	.LANCHOR23
 3678              		.cfi_endproc
 3679              	.LFE43:
 3681              		.section	.text.rt_mb_delete,"ax",%progbits
 3682              		.align	2
 3683              		.global	rt_mb_delete
 3684              		.thumb
 3685              		.thumb_func
 3687              	rt_mb_delete:
 3688              	.LFB44:
1397:rt_thread/src/ipc.c **** RTM_EXPORT(rt_mb_create);
1398:rt_thread/src/ipc.c **** 
1399:rt_thread/src/ipc.c **** /**
1400:rt_thread/src/ipc.c ****  * This function will delete a mailbox object and release the memory
1401:rt_thread/src/ipc.c ****  *
1402:rt_thread/src/ipc.c ****  * @param mb the mailbox object
1403:rt_thread/src/ipc.c ****  *
1404:rt_thread/src/ipc.c ****  * @return the error code
1405:rt_thread/src/ipc.c ****  */
1406:rt_thread/src/ipc.c **** rt_err_t rt_mb_delete(rt_mailbox_t mb)
1407:rt_thread/src/ipc.c **** {
 3689              		.loc 1 1407 0
ARM GAS  /tmp/ccObKSes.s 			page 94


 3690              		.cfi_startproc
 3691              		@ args = 0, pretend = 0, frame = 0
 3692              		@ frame_needed = 0, uses_anonymous_args = 0
 3693              	.LVL546:
 3694 0000 70B5     		push	{r4, r5, r6, lr}
 3695              	.LCFI31:
 3696              		.cfi_def_cfa_offset 16
 3697              		.cfi_offset 4, -16
 3698              		.cfi_offset 5, -12
 3699              		.cfi_offset 6, -8
 3700              		.cfi_offset 14, -4
 3701 0002 0646     		mov	r6, r0
 3702              	.LBB321:
1408:rt_thread/src/ipc.c ****     RT_DEBUG_NOT_IN_INTERRUPT;
 3703              		.loc 1 1408 0
 3704 0004 FFF7FEFF 		bl	rt_hw_interrupt_disable
 3705              	.LVL547:
 3706 0008 0446     		mov	r4, r0
 3707              	.LVL548:
 3708 000a FFF7FEFF 		bl	rt_interrupt_get_nest
 3709              	.LVL549:
 3710 000e 50B1     		cbz	r0, .L269
 3711              		.loc 1 1408 0 is_stmt 0 discriminator 1
 3712 0010 2B4D     		ldr	r5, .L278
 3713 0012 2946     		mov	r1, r5
 3714 0014 2B48     		ldr	r0, .L278+4
 3715 0016 FFF7FEFF 		bl	rt_kprintf
 3716              	.LVL550:
 3717 001a 4FF4B062 		mov	r2, #1408
 3718 001e 2946     		mov	r1, r5
 3719 0020 2948     		ldr	r0, .L278+8
 3720 0022 FFF7FEFF 		bl	rt_assert_handler
 3721              	.LVL551:
 3722              	.L269:
 3723              		.loc 1 1408 0 discriminator 5
 3724 0026 2046     		mov	r0, r4
 3725 0028 FFF7FEFF 		bl	rt_hw_interrupt_enable
 3726              	.LVL552:
 3727              	.LBE321:
1409:rt_thread/src/ipc.c **** 
1410:rt_thread/src/ipc.c ****     /* parameter check */
1411:rt_thread/src/ipc.c ****     RT_ASSERT(mb != RT_NULL);
 3728              		.loc 1 1411 0 is_stmt 1 discriminator 5
 3729 002c 2EB9     		cbnz	r6, .L270
 3730              		.loc 1 1411 0 is_stmt 0 discriminator 1
 3731 002e 40F28352 		movw	r2, #1411
 3732 0032 2349     		ldr	r1, .L278
 3733 0034 2548     		ldr	r0, .L278+12
 3734 0036 FFF7FEFF 		bl	rt_assert_handler
 3735              	.LVL553:
 3736              	.L270:
1412:rt_thread/src/ipc.c ****     RT_ASSERT(rt_object_get_type(&mb->parent.parent) == RT_Object_Class_MailBox);
 3737              		.loc 1 1412 0 is_stmt 1
 3738 003a 3046     		mov	r0, r6
 3739 003c FFF7FEFF 		bl	rt_object_get_type
 3740              	.LVL554:
 3741 0040 0528     		cmp	r0, #5
ARM GAS  /tmp/ccObKSes.s 			page 95


 3742 0042 05D0     		beq	.L271
 3743              		.loc 1 1412 0 is_stmt 0 discriminator 1
 3744 0044 40F28452 		movw	r2, #1412
 3745 0048 1D49     		ldr	r1, .L278
 3746 004a 2148     		ldr	r0, .L278+16
 3747 004c FFF7FEFF 		bl	rt_assert_handler
 3748              	.LVL555:
 3749              	.L271:
1413:rt_thread/src/ipc.c ****     RT_ASSERT(rt_object_is_systemobject(&mb->parent.parent) == RT_FALSE);
 3750              		.loc 1 1413 0 is_stmt 1
 3751 0050 3046     		mov	r0, r6
 3752 0052 FFF7FEFF 		bl	rt_object_is_systemobject
 3753              	.LVL556:
 3754 0056 28B1     		cbz	r0, .L272
 3755              		.loc 1 1413 0 is_stmt 0 discriminator 1
 3756 0058 40F28552 		movw	r2, #1413
 3757 005c 1849     		ldr	r1, .L278
 3758 005e 1D48     		ldr	r0, .L278+20
 3759 0060 FFF7FEFF 		bl	rt_assert_handler
 3760              	.LVL557:
 3761              	.L272:
1414:rt_thread/src/ipc.c **** 
1415:rt_thread/src/ipc.c ****     /* resume all suspended thread */
1416:rt_thread/src/ipc.c ****     rt_ipc_list_resume_all(&(mb->parent.suspend_thread));
 3762              		.loc 1 1416 0 is_stmt 1
 3763 0064 06F11404 		add	r4, r6, #20
 3764              	.LVL558:
 3765 0068 0CE0     		b	.L273
 3766              	.L274:
 3767              	.LBB322:
 3768              	.LBB323:
 166:rt_thread/src/ipc.c **** 
 3769              		.loc 1 166 0
 3770 006a FFF7FEFF 		bl	rt_hw_interrupt_disable
 3771              	.LVL559:
 3772 006e 0546     		mov	r5, r0
 3773              	.LVL560:
 169:rt_thread/src/ipc.c ****         /* set error code to RT_ERROR */
 3774              		.loc 1 169 0
 3775 0070 2068     		ldr	r0, [r4]
 3776              	.LVL561:
 171:rt_thread/src/ipc.c **** 
 3777              		.loc 1 171 0
 3778 0072 4FF0FF33 		mov	r3, #-1
 3779 0076 C361     		str	r3, [r0, #28]
 178:rt_thread/src/ipc.c **** 
 3780              		.loc 1 178 0
 3781 0078 1438     		subs	r0, r0, #20
 3782              	.LVL562:
 3783 007a FFF7FEFF 		bl	rt_thread_resume
 3784              	.LVL563:
 181:rt_thread/src/ipc.c ****     }
 3785              		.loc 1 181 0
 3786 007e 2846     		mov	r0, r5
 3787 0080 FFF7FEFF 		bl	rt_hw_interrupt_enable
 3788              	.LVL564:
 3789              	.L273:
ARM GAS  /tmp/ccObKSes.s 			page 96


 3790              	.LBB324:
 3791              	.LBB325:
 3792              		.loc 2 100 0
 3793 0084 2368     		ldr	r3, [r4]
 3794              	.LVL565:
 3795              	.LBE325:
 3796              	.LBE324:
 163:rt_thread/src/ipc.c ****     {
 3797              		.loc 1 163 0
 3798 0086 9C42     		cmp	r4, r3
 3799 0088 EFD1     		bne	.L274
 3800              	.LVL566:
 3801              	.LBE323:
 3802              	.LBE322:
1417:rt_thread/src/ipc.c **** 
1418:rt_thread/src/ipc.c ****     /* also resume all mailbox private suspended thread */
1419:rt_thread/src/ipc.c ****     rt_ipc_list_resume_all(&(mb->suspend_sender_thread));
 3803              		.loc 1 1419 0
 3804 008a 06F12804 		add	r4, r6, #40
 3805              	.LVL567:
 3806 008e 0CE0     		b	.L275
 3807              	.L276:
 3808              	.LBB326:
 3809              	.LBB327:
 166:rt_thread/src/ipc.c **** 
 3810              		.loc 1 166 0
 3811 0090 FFF7FEFF 		bl	rt_hw_interrupt_disable
 3812              	.LVL568:
 3813 0094 0546     		mov	r5, r0
 3814              	.LVL569:
 169:rt_thread/src/ipc.c ****         /* set error code to RT_ERROR */
 3815              		.loc 1 169 0
 3816 0096 2068     		ldr	r0, [r4]
 3817              	.LVL570:
 171:rt_thread/src/ipc.c **** 
 3818              		.loc 1 171 0
 3819 0098 4FF0FF33 		mov	r3, #-1
 3820 009c C361     		str	r3, [r0, #28]
 178:rt_thread/src/ipc.c **** 
 3821              		.loc 1 178 0
 3822 009e 1438     		subs	r0, r0, #20
 3823              	.LVL571:
 3824 00a0 FFF7FEFF 		bl	rt_thread_resume
 3825              	.LVL572:
 181:rt_thread/src/ipc.c ****     }
 3826              		.loc 1 181 0
 3827 00a4 2846     		mov	r0, r5
 3828 00a6 FFF7FEFF 		bl	rt_hw_interrupt_enable
 3829              	.LVL573:
 3830              	.L275:
 3831              	.LBB328:
 3832              	.LBB329:
 3833              		.loc 2 100 0
 3834 00aa 2368     		ldr	r3, [r4]
 3835              	.LVL574:
 3836              	.LBE329:
 3837              	.LBE328:
ARM GAS  /tmp/ccObKSes.s 			page 97


 163:rt_thread/src/ipc.c ****     {
 3838              		.loc 1 163 0
 3839 00ac 9C42     		cmp	r4, r3
 3840 00ae EFD1     		bne	.L276
 3841              	.LVL575:
 3842              	.LBE327:
 3843              	.LBE326:
1420:rt_thread/src/ipc.c **** 
1421:rt_thread/src/ipc.c ****     /* free mailbox pool */
1422:rt_thread/src/ipc.c ****     RT_KERNEL_FREE(mb->msg_pool);
 3844              		.loc 1 1422 0
 3845 00b0 F069     		ldr	r0, [r6, #28]
 3846 00b2 FFF7FEFF 		bl	rt_free
 3847              	.LVL576:
1423:rt_thread/src/ipc.c **** 
1424:rt_thread/src/ipc.c ****     /* delete mailbox object */
1425:rt_thread/src/ipc.c ****     rt_object_delete(&(mb->parent.parent));
 3848              		.loc 1 1425 0
 3849 00b6 3046     		mov	r0, r6
 3850 00b8 FFF7FEFF 		bl	rt_object_delete
 3851              	.LVL577:
1426:rt_thread/src/ipc.c **** 
1427:rt_thread/src/ipc.c ****     return RT_EOK;
1428:rt_thread/src/ipc.c **** }
 3852              		.loc 1 1428 0
 3853 00bc 0020     		movs	r0, #0
 3854 00be 70BD     		pop	{r4, r5, r6, pc}
 3855              	.LVL578:
 3856              	.L279:
 3857              		.align	2
 3858              	.L278:
 3859 00c0 00000000 		.word	.LANCHOR24
 3860 00c4 9C000000 		.word	.LC4
 3861 00c8 C4000000 		.word	.LC5
 3862 00cc D4020000 		.word	.LC16
 3863 00d0 E4020000 		.word	.LC17
 3864 00d4 58030000 		.word	.LC19
 3865              		.cfi_endproc
 3866              	.LFE44:
 3868              		.section	.text.rt_mb_send_wait,"ax",%progbits
 3869              		.align	2
 3870              		.global	rt_mb_send_wait
 3871              		.thumb
 3872              		.thumb_func
 3874              	rt_mb_send_wait:
 3875              	.LFB45:
1429:rt_thread/src/ipc.c **** RTM_EXPORT(rt_mb_delete);
1430:rt_thread/src/ipc.c **** #endif
1431:rt_thread/src/ipc.c **** 
1432:rt_thread/src/ipc.c **** /**
1433:rt_thread/src/ipc.c ****  * This function will send a mail to mailbox object. If the mailbox is full,
1434:rt_thread/src/ipc.c ****  * current thread will be suspended until timeout.
1435:rt_thread/src/ipc.c ****  *
1436:rt_thread/src/ipc.c ****  * @param mb the mailbox object
1437:rt_thread/src/ipc.c ****  * @param value the mail
1438:rt_thread/src/ipc.c ****  * @param timeout the waiting time
1439:rt_thread/src/ipc.c ****  *
ARM GAS  /tmp/ccObKSes.s 			page 98


1440:rt_thread/src/ipc.c ****  * @return the error code
1441:rt_thread/src/ipc.c ****  */
1442:rt_thread/src/ipc.c **** rt_err_t rt_mb_send_wait(rt_mailbox_t mb,
1443:rt_thread/src/ipc.c ****                          rt_ubase_t   value,
1444:rt_thread/src/ipc.c ****                          rt_int32_t   timeout)
1445:rt_thread/src/ipc.c **** {
 3876              		.loc 1 1445 0
 3877              		.cfi_startproc
 3878              		@ args = 0, pretend = 0, frame = 8
 3879              		@ frame_needed = 0, uses_anonymous_args = 0
 3880              	.LVL579:
 3881 0000 2DE9F04F 		push	{r4, r5, r6, r7, r8, r9, r10, fp, lr}
 3882              	.LCFI32:
 3883              		.cfi_def_cfa_offset 36
 3884              		.cfi_offset 4, -36
 3885              		.cfi_offset 5, -32
 3886              		.cfi_offset 6, -28
 3887              		.cfi_offset 7, -24
 3888              		.cfi_offset 8, -20
 3889              		.cfi_offset 9, -16
 3890              		.cfi_offset 10, -12
 3891              		.cfi_offset 11, -8
 3892              		.cfi_offset 14, -4
 3893 0004 83B0     		sub	sp, sp, #12
 3894              	.LCFI33:
 3895              		.cfi_def_cfa_offset 48
 3896 0006 8946     		mov	r9, r1
 3897 0008 0192     		str	r2, [sp, #4]
1446:rt_thread/src/ipc.c ****     struct rt_thread *thread;
1447:rt_thread/src/ipc.c ****     register rt_ubase_t temp;
1448:rt_thread/src/ipc.c ****     rt_uint32_t tick_delta;
1449:rt_thread/src/ipc.c **** 
1450:rt_thread/src/ipc.c ****     /* parameter check */
1451:rt_thread/src/ipc.c ****     RT_ASSERT(mb != RT_NULL);
 3898              		.loc 1 1451 0
 3899 000a 0646     		mov	r6, r0
 3900 000c 28B9     		cbnz	r0, .L281
 3901              		.loc 1 1451 0 is_stmt 0 discriminator 1
 3902 000e 40F2AB52 		movw	r2, #1451
 3903              	.LVL580:
 3904 0012 7449     		ldr	r1, .L304
 3905              	.LVL581:
 3906 0014 7448     		ldr	r0, .L304+4
 3907              	.LVL582:
 3908 0016 FFF7FEFF 		bl	rt_assert_handler
 3909              	.LVL583:
 3910              	.L281:
1452:rt_thread/src/ipc.c ****     RT_ASSERT(rt_object_get_type(&mb->parent.parent) == RT_Object_Class_MailBox);
 3911              		.loc 1 1452 0 is_stmt 1
 3912 001a 3046     		mov	r0, r6
 3913 001c FFF7FEFF 		bl	rt_object_get_type
 3914              	.LVL584:
 3915 0020 0528     		cmp	r0, #5
 3916 0022 05D0     		beq	.L282
 3917              		.loc 1 1452 0 is_stmt 0 discriminator 1
 3918 0024 40F2AC52 		movw	r2, #1452
 3919 0028 6E49     		ldr	r1, .L304
ARM GAS  /tmp/ccObKSes.s 			page 99


 3920 002a 7048     		ldr	r0, .L304+8
 3921 002c FFF7FEFF 		bl	rt_assert_handler
 3922              	.LVL585:
 3923              	.L282:
1453:rt_thread/src/ipc.c **** 
1454:rt_thread/src/ipc.c ****     /* initialize delta tick */
1455:rt_thread/src/ipc.c ****     tick_delta = 0;
1456:rt_thread/src/ipc.c ****     /* get current thread */
1457:rt_thread/src/ipc.c ****     thread = rt_thread_self();
 3924              		.loc 1 1457 0 is_stmt 1
 3925 0030 FFF7FEFF 		bl	rt_thread_self
 3926              	.LVL586:
 3927 0034 0446     		mov	r4, r0
 3928              	.LVL587:
1458:rt_thread/src/ipc.c **** 
1459:rt_thread/src/ipc.c ****     RT_OBJECT_HOOK_CALL(rt_object_put_hook, (&(mb->parent.parent)));
 3929              		.loc 1 1459 0
 3930 0036 6E4B     		ldr	r3, .L304+12
 3931 0038 1B68     		ldr	r3, [r3]
 3932 003a 0BB1     		cbz	r3, .L283
 3933              		.loc 1 1459 0 is_stmt 0 discriminator 1
 3934 003c 3046     		mov	r0, r6
 3935              	.LVL588:
 3936 003e 9847     		blx	r3
 3937              	.LVL589:
 3938              	.L283:
1460:rt_thread/src/ipc.c **** 
1461:rt_thread/src/ipc.c ****     /* disable interrupt */
1462:rt_thread/src/ipc.c ****     temp = rt_hw_interrupt_disable();
 3939              		.loc 1 1462 0 is_stmt 1
 3940 0040 FFF7FEFF 		bl	rt_hw_interrupt_disable
 3941              	.LVL590:
 3942 0044 8046     		mov	r8, r0
 3943              	.LVL591:
1463:rt_thread/src/ipc.c **** 
1464:rt_thread/src/ipc.c ****     /* for non-blocking call */
1465:rt_thread/src/ipc.c ****     if (mb->entry == mb->size && timeout == 0)
 3944              		.loc 1 1465 0
 3945 0046 728C     		ldrh	r2, [r6, #34]
 3946 0048 338C     		ldrh	r3, [r6, #32]
 3947 004a 9A42     		cmp	r2, r3
 3948 004c 40F09B80 		bne	.L301
 3949              		.loc 1 1465 0 is_stmt 0 discriminator 1
 3950 0050 019B     		ldr	r3, [sp, #4]
 3951 0052 002B     		cmp	r3, #0
 3952 0054 40F09980 		bne	.L302
1466:rt_thread/src/ipc.c ****     {
1467:rt_thread/src/ipc.c ****         rt_hw_interrupt_enable(temp);
 3953              		.loc 1 1467 0 is_stmt 1
 3954 0058 FFF7FEFF 		bl	rt_hw_interrupt_enable
 3955              	.LVL592:
1468:rt_thread/src/ipc.c **** 
1469:rt_thread/src/ipc.c ****         return -RT_EFULL;
 3956              		.loc 1 1469 0
 3957 005c 6FF00200 		mvn	r0, #2
 3958 0060 BCE0     		b	.L285
 3959              	.LVL593:
ARM GAS  /tmp/ccObKSes.s 			page 100


 3960              	.L298:
1470:rt_thread/src/ipc.c ****     }
1471:rt_thread/src/ipc.c **** 
1472:rt_thread/src/ipc.c ****     /* mailbox is full */
1473:rt_thread/src/ipc.c ****     while (mb->entry == mb->size)
1474:rt_thread/src/ipc.c ****     {
1475:rt_thread/src/ipc.c ****         /* reset error number in thread */
1476:rt_thread/src/ipc.c ****         thread->error = RT_EOK;
 3961              		.loc 1 1476 0
 3962 0062 0023     		movs	r3, #0
 3963 0064 2363     		str	r3, [r4, #48]
1477:rt_thread/src/ipc.c **** 
1478:rt_thread/src/ipc.c ****         /* no waiting, return timeout */
1479:rt_thread/src/ipc.c ****         if (timeout == 0)
 3964              		.loc 1 1479 0
 3965 0066 019B     		ldr	r3, [sp, #4]
 3966 0068 2BB9     		cbnz	r3, .L286
1480:rt_thread/src/ipc.c ****         {
1481:rt_thread/src/ipc.c ****             /* enable interrupt */
1482:rt_thread/src/ipc.c ****             rt_hw_interrupt_enable(temp);
 3967              		.loc 1 1482 0
 3968 006a 4046     		mov	r0, r8
 3969 006c FFF7FEFF 		bl	rt_hw_interrupt_enable
 3970              	.LVL594:
1483:rt_thread/src/ipc.c **** 
1484:rt_thread/src/ipc.c ****             return -RT_EFULL;
 3971              		.loc 1 1484 0
 3972 0070 6FF00200 		mvn	r0, #2
 3973 0074 B2E0     		b	.L285
 3974              	.L286:
 3975              	.LBB345:
1485:rt_thread/src/ipc.c ****         }
1486:rt_thread/src/ipc.c **** 
1487:rt_thread/src/ipc.c ****         RT_DEBUG_IN_THREAD_CONTEXT;
 3976              		.loc 1 1487 0
 3977 0076 FFF7FEFF 		bl	rt_hw_interrupt_disable
 3978              	.LVL595:
 3979 007a 0546     		mov	r5, r0
 3980              	.LVL596:
 3981 007c FFF7FEFF 		bl	rt_thread_self
 3982              	.LVL597:
 3983 0080 58B9     		cbnz	r0, .L287
 3984              		.loc 1 1487 0 is_stmt 0 discriminator 1
 3985 0082 DFF860A1 		ldr	r10, .L304
 3986 0086 5146     		mov	r1, r10
 3987 0088 5A48     		ldr	r0, .L304+16
 3988 008a FFF7FEFF 		bl	rt_kprintf
 3989              	.LVL598:
 3990 008e 40F2CF52 		movw	r2, #1487
 3991 0092 5146     		mov	r1, r10
 3992 0094 5848     		ldr	r0, .L304+20
 3993 0096 FFF7FEFF 		bl	rt_assert_handler
 3994              	.LVL599:
 3995              	.L287:
 3996              	.LBB346:
 3997              		.loc 1 1487 0 discriminator 5
 3998 009a FFF7FEFF 		bl	rt_hw_interrupt_disable
ARM GAS  /tmp/ccObKSes.s 			page 101


 3999              	.LVL600:
 4000 009e 8246     		mov	r10, r0
 4001              	.LVL601:
 4002 00a0 FFF7FEFF 		bl	rt_interrupt_get_nest
 4003              	.LVL602:
 4004 00a4 58B1     		cbz	r0, .L288
 4005              		.loc 1 1487 0 discriminator 6
 4006 00a6 DFF83CB1 		ldr	fp, .L304
 4007 00aa 5946     		mov	r1, fp
 4008 00ac 5348     		ldr	r0, .L304+24
 4009 00ae FFF7FEFF 		bl	rt_kprintf
 4010              	.LVL603:
 4011 00b2 40F2CF52 		movw	r2, #1487
 4012 00b6 5946     		mov	r1, fp
 4013 00b8 4F48     		ldr	r0, .L304+20
 4014 00ba FFF7FEFF 		bl	rt_assert_handler
 4015              	.LVL604:
 4016              	.L288:
 4017              		.loc 1 1487 0 discriminator 10
 4018 00be 5046     		mov	r0, r10
 4019 00c0 FFF7FEFF 		bl	rt_hw_interrupt_enable
 4020              	.LVL605:
 4021              	.LBE346:
 4022 00c4 2846     		mov	r0, r5
 4023 00c6 FFF7FEFF 		bl	rt_hw_interrupt_enable
 4024              	.LVL606:
 4025              	.LBE345:
1488:rt_thread/src/ipc.c ****         /* suspend current thread */
1489:rt_thread/src/ipc.c ****         rt_ipc_list_suspend(&(mb->suspend_sender_thread),
 4026              		.loc 1 1489 0 is_stmt 1 discriminator 10
 4027 00ca 06F12805 		add	r5, r6, #40
 4028              	.LVL607:
 4029 00ce 96F809A0 		ldrb	r10, [r6, #9]	@ zero_extendqisi2
 4030              	.LVL608:
 4031              	.LBB347:
 4032              	.LBB348:
  85:rt_thread/src/ipc.c **** 
 4033              		.loc 1 85 0 discriminator 10
 4034 00d2 2046     		mov	r0, r4
 4035 00d4 FFF7FEFF 		bl	rt_thread_suspend
 4036              	.LVL609:
  87:rt_thread/src/ipc.c ****     {
 4037              		.loc 1 87 0 discriminator 10
 4038 00d8 BAF1000F 		cmp	r10, #0
 4039 00dc 03D0     		beq	.L290
 4040 00de BAF1010F 		cmp	r10, #1
 4041 00e2 09D0     		beq	.L291
 4042 00e4 26E0     		b	.L289
 4043              	.L290:
  90:rt_thread/src/ipc.c ****         break;
 4044              		.loc 1 90 0
 4045 00e6 04F11403 		add	r3, r4, #20
 4046              	.LVL610:
 4047              	.LBB349:
 4048              	.LBB350:
  75:rt_thread/include/rtservice.h ****     n->prev = l->prev;
 4049              		.loc 2 75 0
ARM GAS  /tmp/ccObKSes.s 			page 102


 4050 00ea 6A68     		ldr	r2, [r5, #4]
 4051 00ec 1360     		str	r3, [r2]
  76:rt_thread/include/rtservice.h **** 
 4052              		.loc 2 76 0
 4053 00ee 6A68     		ldr	r2, [r5, #4]
 4054 00f0 A261     		str	r2, [r4, #24]
  78:rt_thread/include/rtservice.h ****     n->next = l;
 4055              		.loc 2 78 0
 4056 00f2 6B60     		str	r3, [r5, #4]
  79:rt_thread/include/rtservice.h **** }
 4057              		.loc 2 79 0
 4058 00f4 6561     		str	r5, [r4, #20]
 4059 00f6 1DE0     		b	.L289
 4060              	.LVL611:
 4061              	.L291:
 4062              	.LBE350:
 4063              	.LBE349:
 4064              	.LBB351:
  99:rt_thread/src/ipc.c ****             {
 4065              		.loc 1 99 0
 4066 00f8 B36A     		ldr	r3, [r6, #40]
 4067              	.LVL612:
 4068 00fa 0FE0     		b	.L292
 4069              	.L295:
 4070              	.LVL613:
 104:rt_thread/src/ipc.c ****                 {
 4071              		.loc 1 104 0
 4072 00fc 94F83510 		ldrb	r1, [r4, #53]	@ zero_extendqisi2
 4073 0100 93F82120 		ldrb	r2, [r3, #33]	@ zero_extendqisi2
 4074 0104 9142     		cmp	r1, r2
 4075 0106 08D2     		bcs	.L293
 107:rt_thread/src/ipc.c ****                     break;
 4076              		.loc 1 107 0
 4077 0108 04F11402 		add	r2, r4, #20
 4078              	.LVL614:
 4079              	.LBB352:
 4080              	.LBB353:
  75:rt_thread/include/rtservice.h ****     n->prev = l->prev;
 4081              		.loc 2 75 0
 4082 010c 5968     		ldr	r1, [r3, #4]
 4083 010e 0A60     		str	r2, [r1]
  76:rt_thread/include/rtservice.h **** 
 4084              		.loc 2 76 0
 4085 0110 5968     		ldr	r1, [r3, #4]
 4086 0112 A161     		str	r1, [r4, #24]
  78:rt_thread/include/rtservice.h ****     n->next = l;
 4087              		.loc 2 78 0
 4088 0114 5A60     		str	r2, [r3, #4]
  79:rt_thread/include/rtservice.h **** }
 4089              		.loc 2 79 0
 4090 0116 6361     		str	r3, [r4, #20]
 4091 0118 02E0     		b	.L294
 4092              	.LVL615:
 4093              	.L293:
 4094              	.LBE353:
 4095              	.LBE352:
  99:rt_thread/src/ipc.c ****             {
ARM GAS  /tmp/ccObKSes.s 			page 103


 4096              		.loc 1 99 0
 4097 011a 1B68     		ldr	r3, [r3]
 4098              	.LVL616:
 4099              	.L292:
 4100 011c 9D42     		cmp	r5, r3
 4101 011e EDD1     		bne	.L295
 4102              	.L294:
 116:rt_thread/src/ipc.c ****                 rt_list_insert_before(list, &(thread->tlist));
 4103              		.loc 1 116 0
 4104 0120 9D42     		cmp	r5, r3
 4105 0122 07D1     		bne	.L289
 117:rt_thread/src/ipc.c ****         }
 4106              		.loc 1 117 0
 4107 0124 04F11403 		add	r3, r4, #20
 4108              	.LVL617:
 4109              	.LBB354:
 4110              	.LBB355:
  75:rt_thread/include/rtservice.h ****     n->prev = l->prev;
 4111              		.loc 2 75 0
 4112 0128 6A68     		ldr	r2, [r5, #4]
 4113 012a 1360     		str	r3, [r2]
  76:rt_thread/include/rtservice.h **** 
 4114              		.loc 2 76 0
 4115 012c 6A68     		ldr	r2, [r5, #4]
 4116 012e A261     		str	r2, [r4, #24]
  78:rt_thread/include/rtservice.h ****     n->next = l;
 4117              		.loc 2 78 0
 4118 0130 6B60     		str	r3, [r5, #4]
  79:rt_thread/include/rtservice.h **** }
 4119              		.loc 2 79 0
 4120 0132 6561     		str	r5, [r4, #20]
 4121              	.LVL618:
 4122              	.L289:
 4123              	.LBE355:
 4124              	.LBE354:
 4125              	.LBE351:
 4126              	.LBE348:
 4127              	.LBE347:
1490:rt_thread/src/ipc.c ****                             thread,
1491:rt_thread/src/ipc.c ****                             mb->parent.parent.flag);
1492:rt_thread/src/ipc.c **** 
1493:rt_thread/src/ipc.c ****         /* has waiting time, start thread timer */
1494:rt_thread/src/ipc.c ****         if (timeout > 0)
 4128              		.loc 1 1494 0
 4129 0134 019B     		ldr	r3, [sp, #4]
 4130 0136 002B     		cmp	r3, #0
 4131 0138 0CDD     		ble	.L296
1495:rt_thread/src/ipc.c ****         {
1496:rt_thread/src/ipc.c ****             /* get the start tick of timer */
1497:rt_thread/src/ipc.c ****             tick_delta = rt_tick_get();
 4132              		.loc 1 1497 0
 4133 013a FFF7FEFF 		bl	rt_tick_get
 4134              	.LVL619:
 4135 013e 0746     		mov	r7, r0
 4136              	.LVL620:
1498:rt_thread/src/ipc.c **** 
1499:rt_thread/src/ipc.c ****             RT_DEBUG_LOG(RT_DEBUG_IPC, ("mb_send_wait: start timer of thread:%s\n",
ARM GAS  /tmp/ccObKSes.s 			page 104


1500:rt_thread/src/ipc.c ****                                         thread->name));
1501:rt_thread/src/ipc.c **** 
1502:rt_thread/src/ipc.c ****             /* reset the timeout of thread timer and start it */
1503:rt_thread/src/ipc.c ****             rt_timer_control(&(thread->thread_timer),
 4137              		.loc 1 1503 0
 4138 0140 04F16005 		add	r5, r4, #96
 4139 0144 01AA     		add	r2, sp, #4
 4140              	.LVL621:
 4141 0146 0021     		movs	r1, #0
 4142 0148 2846     		mov	r0, r5
 4143              	.LVL622:
 4144 014a FFF7FEFF 		bl	rt_timer_control
 4145              	.LVL623:
1504:rt_thread/src/ipc.c ****                              RT_TIMER_CTRL_SET_TIME,
1505:rt_thread/src/ipc.c ****                              &timeout);
1506:rt_thread/src/ipc.c ****             rt_timer_start(&(thread->thread_timer));
 4146              		.loc 1 1506 0
 4147 014e 2846     		mov	r0, r5
 4148 0150 FFF7FEFF 		bl	rt_timer_start
 4149              	.LVL624:
 4150              	.L296:
1507:rt_thread/src/ipc.c ****         }
1508:rt_thread/src/ipc.c **** 
1509:rt_thread/src/ipc.c ****         /* enable interrupt */
1510:rt_thread/src/ipc.c ****         rt_hw_interrupt_enable(temp);
 4151              		.loc 1 1510 0
 4152 0154 4046     		mov	r0, r8
 4153 0156 FFF7FEFF 		bl	rt_hw_interrupt_enable
 4154              	.LVL625:
1511:rt_thread/src/ipc.c **** 
1512:rt_thread/src/ipc.c ****         /* re-schedule */
1513:rt_thread/src/ipc.c ****         rt_schedule();
